(dp0
S'METTS MARK'
p1
(dp2
S'to_messages'
p3
I807
sS'deferral_payments'
p4
S'NaN'
p5
sS'expenses'
p6
I94299
sS'poi'
p7
I00
sS'deferred_income'
p8
g5
sS'email_address'
p9
S'mark.metts@enron.com'
p10
sS'long_term_incentive'
p11
g5
sS'perc_email_from_poi'
p12
cnumpy.core.multiarray
scalar
p13
(cnumpy
dtype
p14
(S'f8'
p15
I0
I1
tp16
Rp17
(I3
S'<'
p18
NNNI-1
I-1
I0
tp19
bS'_u\xc2m\xea\x1b\xa8?'
p20
tp21
Rp22
sS'restricted_stock_deferred'
p23
g5
sS'shared_receipt_with_poi'
p24
I702
sS'loan_advances'
p25
g5
sS'from_messages'
p26
I29
sS'other'
p27
I1740
sS'perc_email_to_poi'
p28
g13
(g17
S'\x96{\x1aa\xb9\xa7\xa1?'
p29
tp30
Rp31
sS'director_fees'
p32
g5
sS'bonus'
p33
I600000
sS'total_stock_value'
p34
I585062
sS'from_poi_to_this_person'
p35
I38
sS'from_this_person_to_poi'
p36
I1
sS'restricted_stock'
p37
I585062
sS'salary'
p38
I365788
sS'total_payments'
p39
I1061827
sS'exercised_stock_options'
p40
g5
sS'perc_totalinc_from_exercstock'
p41
g13
(g17
S'\x00\x00\x00\x00\x00\x00\x00\x00'
p42
tp43
Rp44
ssS'BAXTER JOHN C'
p45
(dp46
g3
g5
sg4
I1295738
sg6
I11200
sg7
I00
sg8
I-1386055
sg9
g5
sg11
I1586055
sg12
g13
(g17
S'\x00\x00\x00\x00\x00\x00\x00\x00'
p47
tp48
Rp49
sg23
g5
sg24
g5
sg25
g5
sg26
g5
sg27
I2660303
sg28
g13
(g17
S'\x00\x00\x00\x00\x00\x00\x00\x00'
p50
tp51
Rp52
sg32
g5
sg33
I1200000
sg34
I10623258
sg35
g5
sg36
g5
sg37
I3942714
sg38
I267102
sg39
I5634343
sg40
I6680544
sg41
g13
(g17
S'd\xc0\xe3\x9a\x8e\xf8\xf2?'
p53
tp54
Rp55
ssS'ELLIOTT STEVEN'
p56
(dp57
g3
g5
sg4
g5
sg6
I78552
sg7
I00
sg8
I-400729
sg9
S'steven.elliott@enron.com'
p58
sg11
g5
sg12
g13
(g17
S'\x00\x00\x00\x00\x00\x00\x00\x00'
p59
tp60
Rp61
sg23
g5
sg24
g5
sg25
g5
sg26
g5
sg27
I12961
sg28
g13
(g17
S'\x00\x00\x00\x00\x00\x00\x00\x00'
p62
tp63
Rp64
sg32
g5
sg33
I350000
sg34
I6678735
sg35
g5
sg36
g5
sg37
I1788391
sg38
I170941
sg39
I211725
sg40
I4890344
sg41
g13
(g17
S'd>\xf5\xbf\xfd\x187@'
p65
tp66
Rp67
ssS'CORDES WILLIAM R'
p68
(dp69
g3
I764
sg4
g5
sg6
g5
sg7
I00
sg8
g5
sg9
S'bill.cordes@enron.com'
p70
sg11
g5
sg12
g13
(g17
S'\x08\x86d\x8bh\xce\x8a?'
p71
tp72
Rp73
sg23
g5
sg24
I58
sg25
g5
sg26
I12
sg27
g5
sg28
g13
(g17
S'\x00\x00\x00\x00\x00\x00\x00\x00'
p74
tp75
Rp76
sg32
g5
sg33
g5
sg34
I1038185
sg35
I10
sg36
I0
sg37
I386335
sg38
g5
sg39
g5
sg40
I651850
sg41
g13
(g17
S'\x00\x00\x00\x00\x00\x00\x00\x00'
p77
tp78
Rp79
ssS'HANNON KEVIN P'
p80
(dp81
g3
I1045
sg4
g5
sg6
I34039
sg7
I01
sg8
I-3117011
sg9
S'kevin.hannon@enron.com'
p82
sg11
I1617011
sg12
g13
(g17
S'\x9f\x98\x8dF`[\x9f?'
p83
tp84
Rp85
sg23
g5
sg24
I1035
sg25
g5
sg26
I32
sg27
I11350
sg28
g13
(g17
S'\x00\x00\x00\x00\x00\x00\xe5?'
p86
tp87
Rp88
sg32
g5
sg33
I1500000
sg34
I6391065
sg35
I32
sg36
I21
sg37
I853064
sg38
I243293
sg39
I288682
sg40
I5538001
sg41
g13
(g17
S'f9\xc1\xb6\t/3@'
p89
tp90
Rp91
ssS'MORDAUNT KRISTINA M'
p92
(dp93
g3
g5
sg4
g5
sg6
I35018
sg7
I00
sg8
g5
sg9
S'kristina.mordaunt@enron.com'
p94
sg11
g5
sg12
g13
(g17
S'\x00\x00\x00\x00\x00\x00\x00\x00'
p95
tp96
Rp97
sg23
g5
sg24
g5
sg25
g5
sg26
g5
sg27
I1411
sg28
g13
(g17
S'\x00\x00\x00\x00\x00\x00\x00\x00'
p98
tp99
Rp100
sg32
g5
sg33
I325000
sg34
I208510
sg35
g5
sg36
g5
sg37
I208510
sg38
I267093
sg39
I628522
sg40
g5
sg41
g13
(g17
S'\x00\x00\x00\x00\x00\x00\x00\x00'
p101
tp102
Rp103
ssS'MEYER ROCKFORD G'
p104
(dp105
g3
I232
sg4
I1848227
sg6
g5
sg7
I00
sg8
g5
sg9
S'rockford.meyer@enron.com'
p106
sg11
g5
sg12
g13
(g17
S'\x00\x00\x00\x00\x00\x00\x00\x00'
p107
tp108
Rp109
sg23
g5
sg24
I22
sg25
g5
sg26
I28
sg27
g5
sg28
g13
(g17
S'\x00\x00\x00\x00\x00\x00\x00\x00'
p110
tp111
Rp112
sg32
g5
sg33
g5
sg34
I955873
sg35
I0
sg36
I0
sg37
I462384
sg38
g5
sg39
I1848227
sg40
I493489
sg41
g13
(g17
S'\\\xd8\xa7I\xa3\x16\xd1?'
p113
tp114
Rp115
ssS'MCMAHON JEFFREY'
p116
(dp117
g3
I2355
sg4
g5
sg6
I137108
sg7
I00
sg8
g5
sg9
S'jeffrey.mcmahon@enron.com'
p118
sg11
I694862
sg12
g13
(g17
S'\x82H\x07O38\x99?'
p119
tp120
Rp121
sg23
g5
sg24
I2228
sg25
g5
sg26
I48
sg27
I297353
sg28
g13
(g17
S'UUUUUU\xe1?'
p122
tp123
Rp124
sg32
g5
sg33
I2600000
sg34
I1662855
sg35
I58
sg36
I26
sg37
I558801
sg38
I370448
sg39
I4099771
sg40
I1104054
sg41
g13
(g17
S"jo\x0eh'<\xd1?"
p125
tp126
Rp127
ssS'HORTON STANLEY C'
p128
(dp129
g3
I2350
sg4
I3131860
sg6
g5
sg7
I00
sg8
g5
sg9
S'stanley.horton@enron.com'
p130
sg11
g5
sg12
g13
(g17
S'\x9f\x18\xc9c:,\x93?'
p131
tp132
Rp133
sg23
g5
sg24
I1074
sg25
g5
sg26
I1073
sg27
g5
sg28
g13
(g17
S'["pJH\xa1\x8c?'
p134
tp135
Rp136
sg32
g5
sg33
g5
sg34
I7256648
sg35
I44
sg36
I15
sg37
I2046079
sg38
g5
sg39
I3131860
sg40
I5210569
sg41
g13
(g17
S'\xc4\xbf\xaf3\xa3\x9e\xfa?'
p137
tp138
Rp139
ssS'PIPER GREGORY F'
p140
(dp141
g3
I1238
sg4
I1130036
sg6
I43057
sg7
I00
sg8
I-33333
sg9
S'greg.piper@enron.com'
p142
sg11
g5
sg12
g13
(g17
S'\xc7\xda\x8d;P:\xa9?'
p143
tp144
Rp145
sg23
I-409554
sg24
I742
sg25
g5
sg26
I222
sg27
I778
sg28
g13
(g17
S'\xd0\xba\xc1\x14\xf9\xac\xcb?'
p146
tp147
Rp148
sg32
g5
sg33
I400000
sg34
I880290
sg35
I61
sg36
I48
sg37
I409554
sg38
I197091
sg39
I1737629
sg40
I880290
sg41
g13
(g17
S'\x87Q\xb4\xd4\x196\xe0?'
p149
tp150
Rp151
ssS'HUMPHREY GENE E'
p152
(dp153
g3
I128
sg4
I2964506
sg6
I4994
sg7
I00
sg8
g5
sg9
S'gene.humphrey@enron.com'
p154
sg11
g5
sg12
g13
(g17
S'\x00\x00\x00\x00\x00\x00\xb4?'
p155
tp156
Rp157
sg23
g5
sg24
I119
sg25
g5
sg26
I17
sg27
g5
sg28
g13
(g17
S'\x00\x00\x00\x00\x00\x00\xf0?'
p158
tp159
Rp160
sg32
g5
sg33
g5
sg34
I2282768
sg35
I10
sg36
I17
sg37
g5
sg38
I130724
sg39
I3100224
sg40
I2282768
sg41
g13
(g17
S'SN\xf3q\xf6\x8f\xe7?'
p161
tp162
Rp163
ssS'UMANOFF ADAM S'
p164
(dp165
g3
I111
sg4
g5
sg6
I53122
sg7
I00
sg8
g5
sg9
S'adam.umanoff@enron.com'
p166
sg11
g5
sg12
g13
(g17
S'\xd0\xba\xc1\x14\xf9\xac\xbb?'
p167
tp168
Rp169
sg23
g5
sg24
I41
sg25
g5
sg26
I18
sg27
g5
sg28
g13
(g17
S'\x00\x00\x00\x00\x00\x00\x00\x00'
p170
tp171
Rp172
sg32
g5
sg33
I788750
sg34
g5
sg35
I12
sg36
I0
sg37
g5
sg38
I288589
sg39
I1130461
sg40
g5
sg41
g13
(g17
S'\x00\x00\x00\x00\x00\x00\x00\x00'
p173
tp174
Rp175
ssS'BLACHMAN JEREMY M'
p176
(dp177
g3
I2475
sg4
g5
sg6
I84208
sg7
I00
sg8
g5
sg9
S'jeremy.blachman@enron.com'
p178
sg11
I831809
sg12
g13
(g17
S'[\xbfR\xa0\xd6\xaf\x84?'
p179
tp180
Rp181
sg23
g5
sg24
I2326
sg25
g5
sg26
I14
sg27
I272
sg28
g13
(g17
S'\x92$I\x92$I\xc2?'
p182
tp183
Rp184
sg32
g5
sg33
I850000
sg34
I954354
sg35
I25
sg36
I2
sg37
I189041
sg38
I248546
sg39
I2014835
sg40
I765313
sg41
g13
(g17
S'\xd2\x9f\xd0kHO\xd8?'
p185
tp186
Rp187
ssS'SUNDE MARTIN'
p188
(dp189
g3
I2647
sg4
g5
sg6
g5
sg7
I00
sg8
g5
sg9
S'marty.sunde@enron.com'
p190
sg11
I476451
sg12
g13
(g17
S'\x8fS`D\x8b\xa0\x8c?'
p191
tp192
Rp193
sg23
g5
sg24
I2565
sg25
g5
sg26
I38
sg27
I111122
sg28
g13
(g17
S'Q^Cy\r\xe5\xd5?'
p194
tp195
Rp196
sg32
g5
sg33
I700000
sg34
I698920
sg35
I37
sg36
I13
sg37
I698920
sg38
I257486
sg39
I1545059
sg40
g5
sg41
g13
(g17
S'\x00\x00\x00\x00\x00\x00\x00\x00'
p197
tp198
Rp199
ssS'GIBBS DANA R'
p200
(dp201
g3
I169
sg4
I504610
sg6
g5
sg7
I00
sg8
g5
sg9
S'dana.gibbs@enron.com'
p202
sg11
I461912
sg12
g13
(g17
S'\x00\x00\x00\x00\x00\x00\x00\x00'
p203
tp204
Rp205
sg23
g5
sg24
I23
sg25
g5
sg26
I12
sg27
g5
sg28
g13
(g17
S'\x00\x00\x00\x00\x00\x00\x00\x00'
p206
tp207
Rp208
sg32
g5
sg33
g5
sg34
I2218275
sg35
I0
sg36
I0
sg37
g5
sg38
g5
sg39
I966522
sg40
I2218275
sg41
g13
(g17
S'\x16\xea\xe2\x01c\\\x02@'
p209
tp210
Rp211
ssS'LOWRY CHARLES P'
p212
(dp213
g3
g5
sg4
g5
sg6
g5
sg7
I00
sg8
g5
sg9
g5
sg11
g5
sg12
g13
(g17
S'\x00\x00\x00\x00\x00\x00\x00\x00'
p214
tp215
Rp216
sg23
I-153686
sg24
g5
sg25
g5
sg26
g5
sg27
g5
sg28
g13
(g17
S'\x00\x00\x00\x00\x00\x00\x00\x00'
p217
tp218
Rp219
sg32
g5
sg33
g5
sg34
I372205
sg35
g5
sg36
g5
sg37
I153686
sg38
g5
sg39
g5
sg40
I372205
sg41
g13
(g17
S'\x00\x00\x00\x00\x00\x00\x00\x00'
p220
tp221
Rp222
ssS'COLWELL WESLEY'
p223
(dp224
g3
I1758
sg4
I27610
sg6
I16514
sg7
I01
sg8
I-144062
sg9
S'wes.colwell@enron.com'
p225
sg11
g5
sg12
g13
(g17
S'w\x18\x14ury\xc1?'
p226
tp227
Rp228
sg23
g5
sg24
I1132
sg25
g5
sg26
I40
sg27
I101740
sg28
g13
(g17
S'\x9a\x99\x99\x99\x99\x99\xd1?'
p229
tp230
Rp231
sg32
g5
sg33
I1200000
sg34
I698242
sg35
I240
sg36
I11
sg37
I698242
sg38
I288542
sg39
I1490344
sg40
g5
sg41
g13
(g17
S'\x00\x00\x00\x00\x00\x00\x00\x00'
p232
tp233
Rp234
ssS'MULLER MARK S'
p235
(dp236
g3
I136
sg4
I842924
sg6
g5
sg7
I00
sg8
I-719000
sg9
S's..muller@enron.com'
p237
sg11
I1725545
sg12
g13
(g17
S'\x97\x96\x96\x96\x96\x96\xb6?'
p238
tp239
Rp240
sg23
g5
sg24
I114
sg25
g5
sg26
I16
sg27
I947
sg28
g13
(g17
S'\x00\x00\x00\x00\x00\x00\x00\x00'
p241
tp242
Rp243
sg32
g5
sg33
I1100000
sg34
I1416848
sg35
I12
sg36
I0
sg37
I360528
sg38
I251654
sg39
I3202070
sg40
I1056320
sg41
g13
(g17
S'\xe9\t\x8a\xb4\xdc\x1c\xd5?'
p244
tp245
Rp246
ssS'JACKSON CHARLENE R'
p247
(dp248
g3
I258
sg4
g5
sg6
I10181
sg7
I00
sg8
g5
sg9
S'charlene.jackson@enron.com'
p249
sg11
g5
sg12
g13
(g17
S'4\xe6\x8c9c\xce\xb8?'
p250
tp251
Rp252
sg23
g5
sg24
I117
sg25
g5
sg26
I56
sg27
I2435
sg28
g13
(g17
S'n\xdb\xb6m\xdb\xb6\xd5?'
p253
tp254
Rp255
sg32
g5
sg33
I250000
sg34
I725735
sg35
I25
sg36
I19
sg37
I540672
sg38
I288558
sg39
I551174
sg40
I185063
sg41
g13
(g17
S'0u\xe7\xbb\x1d}\xd5?'
p256
tp257
Rp258
ssS'WESTFAHL RICHARD K'
p259
(dp260
g3
g5
sg4
g5
sg6
I51870
sg7
I00
sg8
I-10800
sg9
S'dick.westfahl@enron.com'
p261
sg11
I256191
sg12
g13
(g17
S'\x00\x00\x00\x00\x00\x00\x00\x00'
p262
tp263
Rp264
sg23
g5
sg24
g5
sg25
g5
sg26
g5
sg27
I401130
sg28
g13
(g17
S'\x00\x00\x00\x00\x00\x00\x00\x00'
p265
tp266
Rp267
sg32
g5
sg33
g5
sg34
I384930
sg35
g5
sg36
g5
sg37
I384930
sg38
I63744
sg39
I762135
sg40
g5
sg41
g13
(g17
S'\x00\x00\x00\x00\x00\x00\x00\x00'
p268
tp269
Rp270
ssS'WALTERS GARETH W'
p271
(dp272
g3
g5
sg4
I53625
sg6
I33785
sg7
I00
sg8
g5
sg9
g5
sg11
g5
sg12
g13
(g17
S'\x00\x00\x00\x00\x00\x00\x00\x00'
p273
tp274
Rp275
sg23
g5
sg24
g5
sg25
g5
sg26
g5
sg27
g5
sg28
g13
(g17
S'\x00\x00\x00\x00\x00\x00\x00\x00'
p276
tp277
Rp278
sg32
g5
sg33
g5
sg34
I1030329
sg35
g5
sg36
g5
sg37
g5
sg38
g5
sg39
I87410
sg40
I1030329
sg41
g13
(g17
S"\xdd\x1eC\xa5\x1a\x93'@"
p279
tp280
Rp281
ssS'WALLS JR ROBERT H'
p282
(dp283
g3
I671
sg4
g5
sg6
I50936
sg7
I00
sg8
g5
sg9
S'rob.walls@enron.com'
p284
sg11
I540751
sg12
g13
(g17
S',\xf4\x80\x92\x80\xf1\x99?'
p285
tp286
Rp287
sg23
g5
sg24
I215
sg25
g5
sg26
I146
sg27
I2
sg28
g13
(g17
S'\x00\x00\x00\x00\x00\x00\x00\x00'
p288
tp289
Rp290
sg32
g5
sg33
I850000
sg34
I5898997
sg35
I17
sg36
I0
sg37
I1552453
sg38
I357091
sg39
I1798780
sg40
I4346544
sg41
g13
(g17
S'\n\xecI]\xc1T\x03@'
p291
tp292
Rp293
ssS'KITCHEN LOUISE'
p294
(dp295
g3
I8305
sg4
g5
sg6
I5774
sg7
I00
sg8
g5
sg9
S'louise.kitchen@enron.com'
p296
sg11
g5
sg12
g13
(g17
S'ud\x15\xea\xb6\xf2\x9e?'
p297
tp298
Rp299
sg23
g5
sg24
I3669
sg25
g5
sg26
I1728
sg27
I93925
sg28
g13
(g17
S'\xdaKh/\xa1\xbd\xbc?'
p300
tp301
Rp302
sg32
g5
sg33
I3100000
sg34
I547143
sg35
I251
sg36
I194
sg37
I466101
sg38
I271442
sg39
I3471141
sg40
I81042
sg41
g13
(g17
S'(\xd5\xd08_\xe8\x97?'
p303
tp304
Rp305
ssS'CHAN RONNIE'
p306
(dp307
g3
g5
sg4
g5
sg6
g5
sg7
I00
sg8
I-98784
sg9
g5
sg11
g5
sg12
g13
(g17
S'\x00\x00\x00\x00\x00\x00\x00\x00'
p308
tp309
Rp310
sg23
I-32460
sg24
g5
sg25
g5
sg26
g5
sg27
g5
sg28
g13
(g17
S'\x00\x00\x00\x00\x00\x00\x00\x00'
p311
tp312
Rp313
sg32
I98784
sg33
g5
sg34
g5
sg35
g5
sg36
g5
sg37
I32460
sg38
g5
sg39
g5
sg40
g5
sg41
g13
(g17
S'\x00\x00\x00\x00\x00\x00\x00\x00'
p314
tp315
Rp316
ssS'BELFER ROBERT'
p317
(dp318
g3
g5
sg4
I-102500
sg6
g5
sg7
I00
sg8
g5
sg9
g5
sg11
g5
sg12
g13
(g17
S'\x00\x00\x00\x00\x00\x00\x00\x00'
p319
tp320
Rp321
sg23
I44093
sg24
g5
sg25
g5
sg26
g5
sg27
g5
sg28
g13
(g17
S'\x00\x00\x00\x00\x00\x00\x00\x00'
p322
tp323
Rp324
sg32
I3285
sg33
g5
sg34
I-44093
sg35
g5
sg36
g5
sg37
g5
sg38
g5
sg39
I102500
sg40
I3285
sg41
g13
(g17
S'\x9c\xc3$\xa0\xb2h\xa0?'
p325
tp326
Rp327
ssS'SHANKMAN JEFFREY A'
p328
(dp329
g3
I3221
sg4
g5
sg6
I178979
sg7
I00
sg8
g5
sg9
S'jeffrey.shankman@enron.com'
p330
sg11
I554422
sg12
g13
(g17
S'f[\xfajF\xe2\x9d?'
p331
tp332
Rp333
sg23
g5
sg24
I1730
sg25
g5
sg26
I2681
sg27
I1191
sg28
g13
(g17
S'\xb3\xb1\xd3O\x9c\xb3\x9f?'
p334
tp335
Rp336
sg32
g5
sg33
I2000000
sg34
I2072035
sg35
I94
sg36
I83
sg37
I630137
sg38
I304110
sg39
I3038702
sg40
I1441898
sg41
g13
(g17
S'7\x12\x97\nd^\xde?'
p337
tp338
Rp339
ssS'WODRASKA JOHN'
p340
(dp341
g3
g5
sg4
g5
sg6
g5
sg7
I00
sg8
g5
sg9
S'john.wodraska@enron.com'
p342
sg11
g5
sg12
g13
(g17
S'\x00\x00\x00\x00\x00\x00\x00\x00'
p343
tp344
Rp345
sg23
g5
sg24
g5
sg25
g5
sg26
g5
sg27
I189583
sg28
g13
(g17
S'\x00\x00\x00\x00\x00\x00\x00\x00'
p346
tp347
Rp348
sg32
g5
sg33
g5
sg34
g5
sg35
g5
sg36
g5
sg37
g5
sg38
g5
sg39
I189583
sg40
g5
sg41
g13
(g17
S'\x00\x00\x00\x00\x00\x00\x00\x00'
p349
tp350
Rp351
ssS'BERGSIEKER RICHARD P'
p352
(dp353
g3
I383
sg4
g5
sg6
I59175
sg7
I00
sg8
I-485813
sg9
S'rick.bergsieker@enron.com'
p354
sg11
I180250
sg12
g13
(g17
S'\xe2R|\xba\x97c\x85?'
p355
tp356
Rp357
sg23
g5
sg24
I233
sg25
g5
sg26
I59
sg27
I427316
sg28
g13
(g17
S'\x00\x00\x00\x00\x00\x00\x00\x00'
p358
tp359
Rp360
sg32
g5
sg33
I250000
sg34
I659249
sg35
I4
sg36
I0
sg37
I659249
sg38
I187922
sg39
I618850
sg40
g5
sg41
g13
(g17
S'\x00\x00\x00\x00\x00\x00\x00\x00'
p361
tp362
Rp363
ssS'URQUHART JOHN A'
p364
(dp365
g3
g5
sg4
g5
sg6
I228656
sg7
I00
sg8
I-36666
sg9
g5
sg11
g5
sg12
g13
(g17
S'\x00\x00\x00\x00\x00\x00\x00\x00'
p366
tp367
Rp368
sg23
g5
sg24
g5
sg25
g5
sg26
g5
sg27
g5
sg28
g13
(g17
S'\x00\x00\x00\x00\x00\x00\x00\x00'
p369
tp370
Rp371
sg32
I36666
sg33
g5
sg34
g5
sg35
g5
sg36
g5
sg37
g5
sg38
g5
sg39
I228656
sg40
g5
sg41
g13
(g17
S'\x00\x00\x00\x00\x00\x00\x00\x00'
p372
tp373
Rp374
ssS'BIBI PHILIPPE A'
p375
(dp376
g3
I1607
sg4
g5
sg6
I38559
sg7
I00
sg8
g5
sg9
S'philippe.bibi@enron.com'
p377
sg11
I369721
sg12
g13
(g17
S'\xc6Ef\x92\xcfO\x8d?'
p378
tp379
Rp380
sg23
g5
sg24
I1336
sg25
g5
sg26
I40
sg27
I425688
sg28
g13
(g17
S'\x9a\x99\x99\x99\x99\x99\xc9?'
p381
tp382
Rp383
sg32
g5
sg33
I1000000
sg34
I1843816
sg35
I23
sg36
I8
sg37
I378082
sg38
I213625
sg39
I2047593
sg40
I1465734
sg41
g13
(g17
S'\xc8\x97\xc0\xf3\x19\xe8\xe6?'
p384
tp385
Rp386
ssS'RIEKER PAULA H'
p387
(dp388
g3
I1328
sg4
I214678
sg6
I33271
sg7
I01
sg8
I-100000
sg9
S'paula.rieker@enron.com'
p389
sg11
g5
sg12
g13
(g17
S'\x82\x12\xdeh\xea\xfc\x9a?'
p390
tp391
Rp392
sg23
g5
sg24
I1258
sg25
g5
sg26
I82
sg27
I1950
sg28
g13
(g17
S'\xbb\x12\xb5+Q\xbb\xe2?'
p393
tp394
Rp395
sg32
g5
sg33
I700000
sg34
I1918887
sg35
I35
sg36
I48
sg37
I283649
sg38
I249201
sg39
I1099100
sg40
I1635238
sg41
g13
(g17
S'R\x11\xa0\x87\x04\xce\xf7?'
p396
tp397
Rp398
ssS'WHALEY DAVID A'
p399
(dp400
g3
g5
sg4
g5
sg6
g5
sg7
I00
sg8
g5
sg9
g5
sg11
g5
sg12
g13
(g17
S'\x00\x00\x00\x00\x00\x00\x00\x00'
p401
tp402
Rp403
sg23
g5
sg24
g5
sg25
g5
sg26
g5
sg27
g5
sg28
g13
(g17
S'\x00\x00\x00\x00\x00\x00\x00\x00'
p404
tp405
Rp406
sg32
g5
sg33
g5
sg34
I98718
sg35
g5
sg36
g5
sg37
g5
sg38
g5
sg39
g5
sg40
I98718
sg41
g13
(g17
S'\x00\x00\x00\x00\x00\x00\x00\x00'
p407
tp408
Rp409
ssS'BECK SALLY W'
p410
(dp411
g3
I7315
sg4
g5
sg6
I37172
sg7
I00
sg8
g5
sg9
S'sally.beck@enron.com'
p412
sg11
g5
sg12
g13
(g17
S'A+\xa4\xbft(\x94?'
p413
tp414
Rp415
sg23
g5
sg24
I2639
sg25
g5
sg26
I4343
sg27
I566
sg28
g13
(g17
S']\x92\xdbe\xc0\xc0\xb6?'
p416
tp417
Rp418
sg32
g5
sg33
I700000
sg34
I126027
sg35
I144
sg36
I386
sg37
I126027
sg38
I231330
sg39
I969068
sg40
g5
sg41
g13
(g17
S'\x00\x00\x00\x00\x00\x00\x00\x00'
p419
tp420
Rp421
ssS'HAUG DAVID L'
p422
(dp423
g3
I573
sg4
g5
sg6
I475
sg7
I00
sg8
g5
sg9
S'david.haug@enron.com'
p424
sg11
g5
sg12
g13
(g17
S'M\xe4\x15\xfb\xe6\x97|?'
p425
tp426
Rp427
sg23
g5
sg24
I471
sg25
g5
sg26
I19
sg27
g5
sg28
g13
(g17
S'Cy\r\xe55\x94\xd7?'
p428
tp429
Rp430
sg32
g5
sg33
g5
sg34
I2217299
sg35
I4
sg36
I7
sg37
I2217299
sg38
g5
sg39
I475
sg40
g5
sg41
g13
(g17
S'\x00\x00\x00\x00\x00\x00\x00\x00'
p431
tp432
Rp433
ssS'ECHOLS JOHN B'
p434
(dp435
g3
g5
sg4
g5
sg6
I21530
sg7
I00
sg8
g5
sg9
S'john.echols@enron.com'
p436
sg11
I2234774
sg12
g13
(g17
S'\x00\x00\x00\x00\x00\x00\x00\x00'
p437
tp438
Rp439
sg23
g5
sg24
g5
sg25
g5
sg26
g5
sg27
I53775
sg28
g13
(g17
S'\x00\x00\x00\x00\x00\x00\x00\x00'
p440
tp441
Rp442
sg32
g5
sg33
I200000
sg34
I1008941
sg35
g5
sg36
g5
sg37
I407503
sg38
I182245
sg39
I2692324
sg40
I601438
sg41
g13
(g17
S'u\xef\x0cV\n\x98\xcc?'
p443
tp444
Rp445
ssS'MENDELSOHN JOHN'
p446
(dp447
g3
g5
sg4
g5
sg6
I148
sg7
I00
sg8
I-103750
sg9
g5
sg11
g5
sg12
g13
(g17
S'\x00\x00\x00\x00\x00\x00\x00\x00'
p448
tp449
Rp450
sg23
g5
sg24
g5
sg25
g5
sg26
g5
sg27
g5
sg28
g13
(g17
S'\x00\x00\x00\x00\x00\x00\x00\x00'
p451
tp452
Rp453
sg32
I103750
sg33
g5
sg34
g5
sg35
g5
sg36
g5
sg37
g5
sg38
g5
sg39
I148
sg40
g5
sg41
g13
(g17
S'\x00\x00\x00\x00\x00\x00\x00\x00'
p454
tp455
Rp456
ssS'HICKERSON GARY J'
p457
(dp458
g3
I1320
sg4
g5
sg6
I98849
sg7
I00
sg8
g5
sg9
S'gary.hickerson@enron.com'
p459
sg11
I69223
sg12
g13
(g17
S'\x08\x1f|\xf0\xc1\x07\x9f?'
p460
tp461
Rp462
sg23
g5
sg24
I900
sg25
g5
sg26
I27
sg27
I1936
sg28
g13
(g17
S'h/\xa1\xbd\x84\xf6\xa2?'
p463
tp464
Rp465
sg32
g5
sg33
I1700000
sg34
I441096
sg35
I40
sg36
I1
sg37
I441096
sg38
I211788
sg39
I2081796
sg40
g5
sg41
g13
(g17
S'\x00\x00\x00\x00\x00\x00\x00\x00'
p466
tp467
Rp468
ssS'CLINE KENNETH W'
p469
(dp470
g3
g5
sg4
g5
sg6
g5
sg7
I00
sg8
g5
sg9
g5
sg11
g5
sg12
g13
(g17
S'\x00\x00\x00\x00\x00\x00\x00\x00'
p471
tp472
Rp473
sg23
I-472568
sg24
g5
sg25
g5
sg26
g5
sg27
g5
sg28
g13
(g17
S'\x00\x00\x00\x00\x00\x00\x00\x00'
p474
tp475
Rp476
sg32
g5
sg33
g5
sg34
I189518
sg35
g5
sg36
g5
sg37
I662086
sg38
g5
sg39
g5
sg40
g5
sg41
g13
(g17
S'\x00\x00\x00\x00\x00\x00\x00\x00'
p477
tp478
Rp479
ssS'LEWIS RICHARD'
p480
(dp481
g3
I952
sg4
g5
sg6
g5
sg7
I00
sg8
g5
sg9
S'richard.lewis@enron.com'
p482
sg11
g5
sg12
g13
(g17
S'\x16:\x83\x15:\x83\x85?'
p483
tp484
Rp485
sg23
g5
sg24
I739
sg25
g5
sg26
I26
sg27
g5
sg28
g13
(g17
S'\x00\x00\x00\x00\x00\x00\x00\x00'
p486
tp487
Rp488
sg32
g5
sg33
g5
sg34
I850477
sg35
I10
sg36
I0
sg37
g5
sg38
g5
sg39
g5
sg40
I850477
sg41
g13
(g17
S'\x00\x00\x00\x00\x00\x00\x00\x00'
p489
tp490
Rp491
ssS'HAYES ROBERT E'
p492
(dp493
g3
I504
sg4
I7961
sg6
g5
sg7
I00
sg8
g5
sg9
S'robert.hayes@enron.com'
p494
sg11
g5
sg12
g13
(g17
S'\x10\x04A\x10\x04A\xa0?'
p495
tp496
Rp497
sg23
g5
sg24
I50
sg25
g5
sg26
I12
sg27
g5
sg28
g13
(g17
S'\x00\x00\x00\x00\x00\x00\x00\x00'
p498
tp499
Rp500
sg32
g5
sg33
g5
sg34
I151418
sg35
I16
sg36
I0
sg37
I151418
sg38
g5
sg39
I7961
sg40
g5
sg41
g13
(g17
S'\x00\x00\x00\x00\x00\x00\x00\x00'
p501
tp502
Rp503
ssS'MCCARTY DANNY J'
p504
(dp505
g3
I1433
sg4
g5
sg6
g5
sg7
I00
sg8
g5
sg9
S'danny.mccarty@enron.com'
p506
sg11
g5
sg12
g13
(g17
S'\x15\xc3\x1c\xb7W\xdd\x91?'
p507
tp508
Rp509
sg23
g5
sg24
I508
sg25
g5
sg26
I215
sg27
g5
sg28
g13
(g17
S'\x90\xd10\x01\x19\r\x83?'
p510
tp511
Rp512
sg32
g5
sg33
g5
sg34
I758931
sg35
I25
sg36
I2
sg37
I94556
sg38
g5
sg39
g5
sg40
I664375
sg41
g13
(g17
S'\x00\x00\x00\x00\x00\x00\x00\x00'
p513
tp514
Rp515
ssS'KOPPER MICHAEL J'
p516
(dp517
g3
g5
sg4
g5
sg6
I118134
sg7
I01
sg8
g5
sg9
S'michael.kopper@enron.com'
p518
sg11
I602671
sg12
g13
(g17
S'\x00\x00\x00\x00\x00\x00\x00\x00'
p519
tp520
Rp521
sg23
g5
sg24
g5
sg25
g5
sg26
g5
sg27
I907502
sg28
g13
(g17
S'\x00\x00\x00\x00\x00\x00\x00\x00'
p522
tp523
Rp524
sg32
g5
sg33
I800000
sg34
I985032
sg35
g5
sg36
g5
sg37
I985032
sg38
I224305
sg39
I2652612
sg40
g5
sg41
g13
(g17
S'\x00\x00\x00\x00\x00\x00\x00\x00'
p525
tp526
Rp527
ssS'LEFF DANIEL P'
p528
(dp529
g3
I2822
sg4
g5
sg6
g5
sg7
I00
sg8
g5
sg9
S'dan.leff@enron.com'
p530
sg11
I1387399
sg12
g13
(g17
S'o\x8a\xd7t\xd4O\x98?'
p531
tp532
Rp533
sg23
g5
sg24
I2672
sg25
g5
sg26
I63
sg27
I3083
sg28
g13
(g17
S'\x1c\xc7q\x1c\xc7q\xcc?'
p534
tp535
Rp536
sg32
g5
sg33
I1000000
sg34
I360528
sg35
I67
sg36
I14
sg37
I360528
sg38
I273746
sg39
I2664228
sg40
g5
sg41
g13
(g17
S'\x00\x00\x00\x00\x00\x00\x00\x00'
p537
tp538
Rp539
ssS'LAVORATO JOHN J'
p540
(dp541
g3
I7259
sg4
g5
sg6
I49537
sg7
I00
sg8
g5
sg9
S'john.lavorato@enron.com'
p542
sg11
I2035380
sg12
g13
(g17
S'\xdc\xe0\xc8@\xe9\x9e\xb2?'
p543
tp544
Rp545
sg23
g5
sg24
I3962
sg25
g5
sg26
I2585
sg27
I1552
sg28
g13
(g17
S'_\xc5\xcf\xfe\xebY\xc4?'
p546
tp547
Rp548
sg32
g5
sg33
I8000000
sg34
I5167144
sg35
I528
sg36
I411
sg37
I1008149
sg38
I339288
sg39
I10425757
sg40
I4158995
sg41
g13
(g17
S'\x1c\x13\xc0r\xd4\x87\xd9?'
p549
tp550
Rp551
ssS'BERBERIAN DAVID'
p552
(dp553
g3
g5
sg4
g5
sg6
I11892
sg7
I00
sg8
g5
sg9
S'david.berberian@enron.com'
p554
sg11
g5
sg12
g13
(g17
S'\x00\x00\x00\x00\x00\x00\x00\x00'
p555
tp556
Rp557
sg23
g5
sg24
g5
sg25
g5
sg26
g5
sg27
g5
sg28
g13
(g17
S'\x00\x00\x00\x00\x00\x00\x00\x00'
p558
tp559
Rp560
sg32
g5
sg33
g5
sg34
I2493616
sg35
g5
sg36
g5
sg37
I869220
sg38
I216582
sg39
I228474
sg40
I1624396
sg41
g13
(g17
S'\xf65\xb0\xb8ep\x1c@'
p561
tp562
Rp563
ssS'DETMERING TIMOTHY J'
p564
(dp565
g3
g5
sg4
I875307
sg6
I52255
sg7
I00
sg8
I-775241
sg9
S'timothy.detmering@enron.com'
p566
sg11
I415657
sg12
g13
(g17
S'\x00\x00\x00\x00\x00\x00\x00\x00'
p567
tp568
Rp569
sg23
I-315068
sg24
g5
sg25
g5
sg26
g5
sg27
I1105
sg28
g13
(g17
S'\x00\x00\x00\x00\x00\x00\x00\x00'
p570
tp571
Rp572
sg32
g5
sg33
I425000
sg34
I2027865
sg35
g5
sg36
g5
sg37
I315068
sg38
I210500
sg39
I1204583
sg40
I2027865
sg41
g13
(g17
S'f\xa6\xd7\xc0q\xef\xfa?'
p573
tp574
Rp575
ssS'WAKEHAM JOHN'
p576
(dp577
g3
g5
sg4
g5
sg6
I103773
sg7
I00
sg8
g5
sg9
g5
sg11
g5
sg12
g13
(g17
S'\x00\x00\x00\x00\x00\x00\x00\x00'
p578
tp579
Rp580
sg23
g5
sg24
g5
sg25
g5
sg26
g5
sg27
g5
sg28
g13
(g17
S'\x00\x00\x00\x00\x00\x00\x00\x00'
p581
tp582
Rp583
sg32
I109298
sg33
g5
sg34
g5
sg35
g5
sg36
g5
sg37
g5
sg38
g5
sg39
I213071
sg40
g5
sg41
g13
(g17
S'\x00\x00\x00\x00\x00\x00\x00\x00'
p584
tp585
Rp586
ssS'POWERS WILLIAM'
p587
(dp588
g3
I653
sg4
g5
sg6
g5
sg7
I00
sg8
I-17500
sg9
S'ken.powers@enron.com'
p589
sg11
g5
sg12
g13
(g17
S'\x00\x00\x00\x00\x00\x00\x00\x00'
p590
tp591
Rp592
sg23
g5
sg24
I12
sg25
g5
sg26
I26
sg27
g5
sg28
g13
(g17
S'\x00\x00\x00\x00\x00\x00\x00\x00'
p593
tp594
Rp595
sg32
I17500
sg33
g5
sg34
g5
sg35
I0
sg36
I0
sg37
g5
sg38
g5
sg39
g5
sg40
g5
sg41
g13
(g17
S'\x00\x00\x00\x00\x00\x00\x00\x00'
p596
tp597
Rp598
ssS'GOLD JOSEPH'
p599
(dp600
g3
g5
sg4
g5
sg6
g5
sg7
I00
sg8
g5
sg9
S'joe.gold@enron.com'
p601
sg11
I304805
sg12
g13
(g17
S'\x00\x00\x00\x00\x00\x00\x00\x00'
p602
tp603
Rp604
sg23
g5
sg24
g5
sg25
g5
sg26
g5
sg27
I819288
sg28
g13
(g17
S'\x00\x00\x00\x00\x00\x00\x00\x00'
p605
tp606
Rp607
sg32
g5
sg33
I750000
sg34
I877611
sg35
g5
sg36
g5
sg37
I441096
sg38
I272880
sg39
I2146973
sg40
I436515
sg41
g13
(g17
S"\x7f\xd1'GF\x06\xca?"
p608
tp609
Rp610
ssS'BANNANTINE JAMES M'
p611
(dp612
g3
I566
sg4
g5
sg6
I56301
sg7
I00
sg8
I-5104
sg9
S'james.bannantine@enron.com'
p613
sg11
g5
sg12
g13
(g17
S'\xdd\xe49@\xbb\xa3\xb1?'
p614
tp615
Rp616
sg23
I-560222
sg24
I465
sg25
g5
sg26
I29
sg27
I864523
sg28
g13
(g17
S'\x00\x00\x00\x00\x00\x00\x00\x00'
p617
tp618
Rp619
sg32
g5
sg33
g5
sg34
I5243487
sg35
I39
sg36
I0
sg37
I1757552
sg38
I477
sg39
I916197
sg40
I4046157
sg41
g13
(g17
S'\x80\xf7\n\x03>\xaa\x11@'
p620
tp621
Rp622
ssS'DUNCAN JOHN H'
p623
(dp624
g3
g5
sg4
g5
sg6
g5
sg7
I00
sg8
I-25000
sg9
g5
sg11
g5
sg12
g13
(g17
S'\x00\x00\x00\x00\x00\x00\x00\x00'
p625
tp626
Rp627
sg23
g5
sg24
g5
sg25
g5
sg26
g5
sg27
g5
sg28
g13
(g17
S'\x00\x00\x00\x00\x00\x00\x00\x00'
p628
tp629
Rp630
sg32
I102492
sg33
g5
sg34
I371750
sg35
g5
sg36
g5
sg37
g5
sg38
g5
sg39
I77492
sg40
I371750
sg41
g13
(g17
S'\xe9\xf6ocg0\x13@'
p631
tp632
Rp633
ssS'SHAPIRO RICHARD S'
p634
(dp635
g3
I15149
sg4
g5
sg6
I137767
sg7
I00
sg8
g5
sg9
S'richard.shapiro@enron.com'
p636
sg11
g5
sg12
g13
(g17
S'\xa58\x88o\x18\x02t?'
p637
tp638
Rp639
sg23
g5
sg24
I4527
sg25
g5
sg26
I1215
sg27
I705
sg28
g13
(g17
S'\xb3\xd2\xe8\x11\x15d\xab?'
p640
tp641
Rp642
sg32
g5
sg33
I650000
sg34
I987001
sg35
I74
sg36
I65
sg37
I379164
sg38
I269076
sg39
I1057548
sg40
I607837
sg41
g13
(g17
S'^\xb7\x96~pd\xe2?'
p643
tp644
Rp645
ssS'SHERRIFF JOHN R'
p646
(dp647
g3
I3187
sg4
g5
sg6
g5
sg7
I00
sg8
g5
sg9
S'john.sherriff@enron.com'
p648
sg11
I554422
sg12
g13
(g17
S'\x9cn%\x9a;\xfe\x81?'
p649
tp650
Rp651
sg23
g5
sg24
I2103
sg25
g5
sg26
I92
sg27
I1852186
sg28
g13
(g17
S'\x00\x00\x00\x00\x00\x00\xd0?'
p652
tp653
Rp654
sg32
g5
sg33
I1500000
sg34
I3128982
sg35
I28
sg36
I23
sg37
I1293424
sg38
I428780
sg39
I4335388
sg40
I1835558
sg41
g13
(g17
S'\xd0`\x05\x82\xd0\x18\xdb?'
p655
tp656
Rp657
ssS'SHELBY REX'
p658
(dp659
g3
I225
sg4
g5
sg6
I22884
sg7
I01
sg8
I-4167
sg9
S'rex.shelby@enron.com'
p660
sg11
g5
sg12
g13
(g17
S'\xear\xfb\x83\x0c\x95\xad?'
p661
tp662
Rp663
sg23
g5
sg24
I91
sg25
g5
sg26
I39
sg27
I1573324
sg28
g13
(g17
S'\x97o\xf9\x96o\xf9\xd6?'
p664
tp665
Rp666
sg32
g5
sg33
I200000
sg34
I2493616
sg35
I13
sg36
I14
sg37
I869220
sg38
I211844
sg39
I2003885
sg40
I1624396
sg41
g13
(g17
S')\xf2\xc7h\xa0\xf0\xe9?'
p667
tp668
Rp669
ssS'LEMAISTRE CHARLES'
p670
(dp671
g3
g5
sg4
g5
sg6
g5
sg7
I00
sg8
I-25000
sg9
g5
sg11
g5
sg12
g13
(g17
S'\x00\x00\x00\x00\x00\x00\x00\x00'
p672
tp673
Rp674
sg23
g5
sg24
g5
sg25
g5
sg26
g5
sg27
g5
sg28
g13
(g17
S'\x00\x00\x00\x00\x00\x00\x00\x00'
p675
tp676
Rp677
sg32
I112492
sg33
g5
sg34
I412878
sg35
g5
sg36
g5
sg37
g5
sg38
g5
sg39
I87492
sg40
I412878
sg41
g13
(g17
S'\xca\xc9\x97GK\xe0\x12@'
p678
tp679
Rp680
ssS'DEFFNER JOSEPH M'
p681
(dp682
g3
I714
sg4
g5
sg6
I41626
sg7
I00
sg8
g5
sg9
S'joseph.deffner@enron.com'
p683
sg11
I335349
sg12
g13
(g17
S'U\xc2\x9dT\xc2\x9d\xc4?'
p684
tp685
Rp686
sg23
g5
sg24
I552
sg25
g5
sg26
I74
sg27
I25553
sg28
g13
(g17
S'\xd0\xba\xc1\x14\xf9\xac\xab?'
p687
tp688
Rp689
sg32
g5
sg33
I600000
sg34
I159211
sg35
I115
sg36
I4
sg37
I141833
sg38
I206121
sg39
I1208649
sg40
I17378
sg41
g13
(g17
S'^\xfe^t;r\x8d?'
p690
tp691
Rp692
ssS'KISHKILL JOSEPH G'
p693
(dp694
g3
g5
sg4
g5
sg6
I116335
sg7
I00
sg8
I-51042
sg9
S'joe.kishkill@enron.com'
p695
sg11
g5
sg12
g13
(g17
S'\x00\x00\x00\x00\x00\x00\x00\x00'
p696
tp697
Rp698
sg23
g5
sg24
g5
sg25
g5
sg26
g5
sg27
I465357
sg28
g13
(g17
S'\x00\x00\x00\x00\x00\x00\x00\x00'
p699
tp700
Rp701
sg32
g5
sg33
g5
sg34
I1034346
sg35
g5
sg36
g5
sg37
I1034346
sg38
I174246
sg39
I704896
sg40
g5
sg41
g13
(g17
S'\x00\x00\x00\x00\x00\x00\x00\x00'
p702
tp703
Rp704
ssS'WHALLEY LAWRENCE G'
p705
(dp706
g3
I6019
sg4
g5
sg6
I57838
sg7
I00
sg8
g5
sg9
S'greg.whalley@enron.com'
p707
sg11
I808346
sg12
g13
(g17
S'dD\xe8\xb9\xcf\xa4\x9f?'
p708
tp709
Rp710
sg23
g5
sg24
I3920
sg25
g5
sg26
I556
sg27
I301026
sg28
g13
(g17
S"'!\x8a\xbf\xc8\x19\xa6?"
p711
tp712
Rp713
sg32
g5
sg33
I3000000
sg34
I6079137
sg35
I186
sg36
I24
sg37
I2796177
sg38
I510364
sg39
I4677574
sg40
I3282960
sg41
g13
(g17
S'\xa3\x8e\xaa;\x90u\xe6?'
p714
tp715
Rp716
ssS'MCCONNELL MICHAEL S'
p717
(dp718
g3
I3329
sg4
g5
sg6
I81364
sg7
I00
sg8
g5
sg9
S'mike.mcconnell@enron.com'
p719
sg11
I554422
sg12
g13
(g17
S'z\xcd\x90\xa5\x97L\x9c?'
p720
tp721
Rp722
sg23
g5
sg24
I2189
sg25
g5
sg26
I2742
sg27
I540
sg28
g13
(g17
S'8bvr\xc1\x1c\xb2?'
p723
tp724
Rp725
sg32
g5
sg33
I1100000
sg34
I3101279
sg35
I92
sg36
I194
sg37
I1478269
sg38
I365038
sg39
I2101364
sg40
I1623010
sg41
g13
(g17
S'\xe6\xbd\x94\xd1,\xb7\xe8?'
p726
tp727
Rp728
ssS'PIRO JIM'
p729
(dp730
g3
I58
sg4
g5
sg6
g5
sg7
I00
sg8
g5
sg9
S'jim.piro@enron.com'
p731
sg11
g5
sg12
g13
(g17
S'\x00\x00\x00\x00\x00\x00\x00\x00'
p732
tp733
Rp734
sg23
g5
sg24
I3
sg25
g5
sg26
I16
sg27
g5
sg28
g13
(g17
S'\x00\x00\x00\x00\x00\x00\xb0?'
p735
tp736
Rp737
sg32
g5
sg33
g5
sg34
I47304
sg35
I0
sg36
I1
sg37
I47304
sg38
g5
sg39
g5
sg40
g5
sg41
g13
(g17
S'\x00\x00\x00\x00\x00\x00\x00\x00'
p738
tp739
Rp740
ssS'DELAINEY DAVID W'
p741
(dp742
g3
I3093
sg4
g5
sg6
I86174
sg7
I01
sg8
g5
sg9
S'david.delainey@enron.com'
p743
sg11
I1294981
sg12
g13
(g17
S']\xef\xe4\xea\xc2\xd9\x95?'
p744
tp745
Rp746
sg23
g5
sg24
I2097
sg25
g5
sg26
I3069
sg27
I1661
sg28
g13
(g17
S'f\x99e\x96Yf\xc9?'
p747
tp748
Rp749
sg32
g5
sg33
I3000000
sg34
I3614261
sg35
I66
sg36
I609
sg37
I1323148
sg38
I365163
sg39
I4747979
sg40
I2291113
sg41
g13
(g17
S'\xf4\x17b\xf5\x03\xe2\xde?'
p750
tp751
Rp752
ssS'SULLIVAN-SHAKLOVITZ COLLEEN'
p753
(dp754
g3
g5
sg4
I181993
sg6
g5
sg7
I00
sg8
g5
sg9
g5
sg11
I554422
sg12
g13
(g17
S'\x00\x00\x00\x00\x00\x00\x00\x00'
p755
tp756
Rp757
sg23
g5
sg24
g5
sg25
g5
sg26
g5
sg27
I162
sg28
g13
(g17
S'\x00\x00\x00\x00\x00\x00\x00\x00'
p758
tp759
Rp760
sg32
g5
sg33
I100000
sg34
I1362375
sg35
g5
sg36
g5
sg37
g5
sg38
I162779
sg39
I999356
sg40
I1362375
sg41
g13
(g17
S';v8O\xe2\xcf\xf5?'
p761
tp762
Rp763
ssS'WROBEL BRUCE'
p764
(dp765
g3
g5
sg4
g5
sg6
g5
sg7
I00
sg8
g5
sg9
g5
sg11
g5
sg12
g13
(g17
S'\x00\x00\x00\x00\x00\x00\x00\x00'
p766
tp767
Rp768
sg23
g5
sg24
g5
sg25
g5
sg26
g5
sg27
g5
sg28
g13
(g17
S'\x00\x00\x00\x00\x00\x00\x00\x00'
p769
tp770
Rp771
sg32
g5
sg33
g5
sg34
I139130
sg35
g5
sg36
g5
sg37
g5
sg38
g5
sg39
g5
sg40
I139130
sg41
g13
(g17
S'\x00\x00\x00\x00\x00\x00\x00\x00'
p772
tp773
Rp774
ssS'LINDHOLM TOD A'
p775
(dp776
g3
g5
sg4
I204075
sg6
I57727
sg7
I00
sg8
g5
sg9
S'tod.lindholm@enron.com'
p777
sg11
I175000
sg12
g13
(g17
S'\x00\x00\x00\x00\x00\x00\x00\x00'
p778
tp779
Rp780
sg23
g5
sg24
g5
sg25
g5
sg26
g5
sg27
I2630
sg28
g13
(g17
S'\x00\x00\x00\x00\x00\x00\x00\x00'
p781
tp782
Rp783
sg32
g5
sg33
I200000
sg34
I3064208
sg35
g5
sg36
g5
sg37
I514847
sg38
I236457
sg39
I875889
sg40
I2549361
sg41
g13
(g17
S'\xd2T\xad\xbd\xe7H\x07@'
p784
tp785
Rp786
ssS'MEYER JEROME J'
p787
(dp788
g3
g5
sg4
g5
sg6
I2151
sg7
I00
sg8
I-38346
sg9
g5
sg11
g5
sg12
g13
(g17
S'\x00\x00\x00\x00\x00\x00\x00\x00'
p789
tp790
Rp791
sg23
g5
sg24
g5
sg25
g5
sg26
g5
sg27
g5
sg28
g13
(g17
S'\x00\x00\x00\x00\x00\x00\x00\x00'
p792
tp793
Rp794
sg32
I38346
sg33
g5
sg34
g5
sg35
g5
sg36
g5
sg37
g5
sg38
g5
sg39
I2151
sg40
g5
sg41
g13
(g17
S'\x00\x00\x00\x00\x00\x00\x00\x00'
p795
tp796
Rp797
ssS'LAY KENNETH L'
p798
(dp799
g3
I4273
sg4
I202911
sg6
I99832
sg7
I01
sg8
I-300000
sg9
S'kenneth.lay@enron.com'
p800
sg11
I3600000
sg12
g13
(g17
S'\xf4-QE\xeby\x9d?'
p801
tp802
Rp803
sg23
g5
sg24
I2411
sg25
I81525000
sg26
I36
sg27
I10359729
sg28
g13
(g17
S'\x1c\xc7q\x1c\xc7q\xdc?'
p804
tp805
Rp806
sg32
g5
sg33
I7000000
sg34
I49110078
sg35
I123
sg36
I16
sg37
I14761694
sg38
I1072321
sg39
I103559793
sg40
I34348384
sg41
g13
(g17
S'\xce\xef\xe5u1:\xd5?'
p807
tp808
Rp809
ssS'BUTTS ROBERT H'
p810
(dp811
g3
g5
sg4
g5
sg6
I9410
sg7
I00
sg8
I-75000
sg9
S'bob.butts@enron.com'
p812
sg11
I175000
sg12
g13
(g17
S'\x00\x00\x00\x00\x00\x00\x00\x00'
p813
tp814
Rp815
sg23
g5
sg24
g5
sg25
g5
sg26
g5
sg27
I150656
sg28
g13
(g17
S'\x00\x00\x00\x00\x00\x00\x00\x00'
p816
tp817
Rp818
sg32
g5
sg33
I750000
sg34
I417619
sg35
g5
sg36
g5
sg37
I417619
sg38
I261516
sg39
I1271582
sg40
g5
sg41
g13
(g17
S'\x00\x00\x00\x00\x00\x00\x00\x00'
p819
tp820
Rp821
ssS'OLSON CINDY K'
p822
(dp823
g3
I1184
sg4
I77716
sg6
I63791
sg7
I00
sg8
g5
sg9
S'cindy.olson@enron.com'
p824
sg11
I100000
sg12
g13
(g17
S'\xc2\x14\xf9\xac\x1bL\x91?'
p825
tp826
Rp827
sg23
g5
sg24
I856
sg25
g5
sg26
I52
sg27
I972
sg28
g13
(g17
S"b'vb'v\xd2?"
p828
tp829
Rp830
sg32
g5
sg33
I750000
sg34
I2606763
sg35
I20
sg36
I15
sg37
I969729
sg38
I329078
sg39
I1321557
sg40
I1637034
sg41
g13
(g17
S'\x14\x10\xc6\x06\xc8\xd1\xf3?'
p831
tp832
Rp833
ssS'MCDONALD REBECCA'
p834
(dp835
g3
I894
sg4
g5
sg6
g5
sg7
I00
sg8
g5
sg9
S'rebecca.mcdonald@enron.com'
p836
sg11
g5
sg12
g13
(g17
S'\xfdy\x95\xc5\x19\xed\xae?'
p837
tp838
Rp839
sg23
g5
sg24
I720
sg25
g5
sg26
I13
sg27
g5
sg28
g13
(g17
S'\x14;\xb1\x13;\xb1\xb3?'
p840
tp841
Rp842
sg32
g5
sg33
g5
sg34
I1691366
sg35
I54
sg36
I1
sg37
I934065
sg38
g5
sg39
g5
sg40
I757301
sg41
g13
(g17
S'\x00\x00\x00\x00\x00\x00\x00\x00'
p843
tp844
Rp845
ssS'CUMBERLAND MICHAEL S'
p846
(dp847
g3
g5
sg4
g5
sg6
I22344
sg7
I00
sg8
g5
sg9
g5
sg11
I275000
sg12
g13
(g17
S'\x00\x00\x00\x00\x00\x00\x00\x00'
p848
tp849
Rp850
sg23
g5
sg24
g5
sg25
g5
sg26
g5
sg27
I713
sg28
g13
(g17
S'\x00\x00\x00\x00\x00\x00\x00\x00'
p851
tp852
Rp853
sg32
g5
sg33
I325000
sg34
I207940
sg35
g5
sg36
g5
sg37
I207940
sg38
I184899
sg39
I807956
sg40
g5
sg41
g13
(g17
S'\x00\x00\x00\x00\x00\x00\x00\x00'
p854
tp855
Rp856
ssS'GAHN ROBERT S'
p857
(dp858
g3
g5
sg4
I73122
sg6
I50080
sg7
I00
sg8
I-1042
sg9
g5
sg11
g5
sg12
g13
(g17
S'\x00\x00\x00\x00\x00\x00\x00\x00'
p859
tp860
Rp861
sg23
g5
sg24
g5
sg25
g5
sg26
g5
sg27
I76547
sg28
g13
(g17
S'\x00\x00\x00\x00\x00\x00\x00\x00'
p862
tp863
Rp864
sg32
g5
sg33
I509870
sg34
I318607
sg35
g5
sg36
g5
sg37
I235370
sg38
I192008
sg39
I900585
sg40
I83237
sg41
g13
(g17
S'K\xe6\x9892\xa9\xb7?'
p865
tp866
Rp867
ssS'MCCLELLAN GEORGE'
p868
(dp869
g3
I1744
sg4
g5
sg6
I228763
sg7
I00
sg8
I-125000
sg9
S'george.mcclellan@enron.com'
p870
sg11
g5
sg12
g13
(g17
S'\x84\xe8\xf1]8\x88\x9e?'
p871
tp872
Rp873
sg23
g5
sg24
I1469
sg25
g5
sg26
I49
sg27
I51587
sg28
g13
(g17
S'\x00\x00\x00\x00\x00\x00\x00\x00'
p874
tp875
Rp876
sg32
g5
sg33
I900000
sg34
I947861
sg35
I52
sg36
I0
sg37
I441096
sg38
I263413
sg39
I1318763
sg40
I506765
sg41
g13
(g17
S'\xb6\xa9J\xbc\xed\x97\xd8?'
p877
tp878
Rp879
ssS'HERMANN ROBERT J'
p880
(dp881
g3
g5
sg4
g5
sg6
I48357
sg7
I00
sg8
I-280000
sg9
S'robert.hermann@enron.com'
p882
sg11
I150000
sg12
g13
(g17
S'\x00\x00\x00\x00\x00\x00\x00\x00'
p883
tp884
Rp885
sg23
g5
sg24
g5
sg25
g5
sg26
g5
sg27
I416441
sg28
g13
(g17
S'\x00\x00\x00\x00\x00\x00\x00\x00'
p886
tp887
Rp888
sg32
g5
sg33
I700000
sg34
I668132
sg35
g5
sg36
g5
sg37
I480632
sg38
I262663
sg39
I1297461
sg40
I187500
sg41
g13
(g17
S'\xd1\x1e\x0e\x07g\x7f\xc2?'
p889
tp890
Rp891
ssS'SCRIMSHAW MATTHEW'
p892
(dp893
g3
g5
sg4
g5
sg6
g5
sg7
I00
sg8
g5
sg9
S'matthew.scrimshaw@enron.com'
p894
sg11
g5
sg12
g13
(g17
S'\x00\x00\x00\x00\x00\x00\x00\x00'
p895
tp896
Rp897
sg23
g5
sg24
g5
sg25
g5
sg26
g5
sg27
g5
sg28
g13
(g17
S'\x00\x00\x00\x00\x00\x00\x00\x00'
p898
tp899
Rp900
sg32
g5
sg33
g5
sg34
I759557
sg35
g5
sg36
g5
sg37
g5
sg38
g5
sg39
g5
sg40
I759557
sg41
g13
(g17
S'\x00\x00\x00\x00\x00\x00\x00\x00'
p901
tp902
Rp903
ssS'GATHMANN WILLIAM D'
p904
(dp905
g3
g5
sg4
g5
sg6
g5
sg7
I00
sg8
g5
sg9
g5
sg11
g5
sg12
g13
(g17
S'\x00\x00\x00\x00\x00\x00\x00\x00'
p906
tp907
Rp908
sg23
I-72419
sg24
g5
sg25
g5
sg26
g5
sg27
g5
sg28
g13
(g17
S'\x00\x00\x00\x00\x00\x00\x00\x00'
p909
tp910
Rp911
sg32
g5
sg33
g5
sg34
I1945360
sg35
g5
sg36
g5
sg37
I264013
sg38
g5
sg39
g5
sg40
I1753766
sg41
g13
(g17
S'\x00\x00\x00\x00\x00\x00\x00\x00'
p912
tp913
Rp914
ssS'HAEDICKE MARK E'
p915
(dp916
g3
I4009
sg4
I2157527
sg6
I76169
sg7
I00
sg8
I-934484
sg9
S'mark.haedicke@enron.com'
p917
sg11
I983346
sg12
g13
(g17
S'\\\x8fC\xae\xff\xfc\xa6?'
p918
tp919
Rp920
sg23
I-329825
sg24
I1847
sg25
g5
sg26
I1941
sg27
I52382
sg28
g13
(g17
S'\xf0T\x8cx6\x17\xa0?'
p921
tp922
Rp923
sg32
g5
sg33
I1150000
sg34
I803094
sg35
I180
sg36
I61
sg37
I524169
sg38
I374125
sg39
I3859065
sg40
I608750
sg41
g13
(g17
S'\xc0z\x06\xdd\x001\xc4?'
p924
tp925
Rp926
ssS'BOWEN JR RAYMOND M'
p927
(dp928
g3
I1858
sg4
g5
sg6
I65907
sg7
I01
sg8
I-833
sg9
S'raymond.bowen@enron.com'
p929
sg11
I974293
sg12
g13
(g17
S'BqE\x84 J\xb3?'
p930
tp931
Rp932
sg23
g5
sg24
I1593
sg25
g5
sg26
I27
sg27
I1621
sg28
g13
(g17
S'r\x1c\xc7q\x1c\xc7\xe1?'
p933
tp934
Rp935
sg32
g5
sg33
I1350000
sg34
I252055
sg35
I140
sg36
I15
sg37
I252055
sg38
I278601
sg39
I2669589
sg40
g5
sg41
g13
(g17
S'\x00\x00\x00\x00\x00\x00\x00\x00'
p936
tp937
Rp938
ssS'GILLIS JOHN'
p939
(dp940
g3
g5
sg4
g5
sg6
g5
sg7
I00
sg8
g5
sg9
g5
sg11
g5
sg12
g13
(g17
S'\x00\x00\x00\x00\x00\x00\x00\x00'
p941
tp942
Rp943
sg23
g5
sg24
g5
sg25
g5
sg26
g5
sg27
g5
sg28
g13
(g17
S'\x00\x00\x00\x00\x00\x00\x00\x00'
p944
tp945
Rp946
sg32
g5
sg33
g5
sg34
I85641
sg35
g5
sg36
g5
sg37
I75838
sg38
g5
sg39
g5
sg40
I9803
sg41
g13
(g17
S'\x00\x00\x00\x00\x00\x00\x00\x00'
p947
tp948
Rp949
ssS'FITZGERALD JAY L'
p950
(dp951
g3
I936
sg4
g5
sg6
I23870
sg7
I00
sg8
g5
sg9
S'jay.fitzgerald@enron.com'
p952
sg11
I556416
sg12
g13
(g17
S'\x12\x18\x81\x11\x18\x81Q?'
p953
tp954
Rp955
sg23
g5
sg24
I723
sg25
g5
sg26
I16
sg27
I285414
sg28
g13
(g17
S'\x00\x00\x00\x00\x00\x00\xe0?'
p956
tp957
Rp958
sg32
g5
sg33
I350000
sg34
I1621236
sg35
I1
sg36
I8
sg37
I956775
sg38
I199157
sg39
I1414857
sg40
I664461
sg41
g13
(g17
S'z\xf0R\x0cp\x0e\xde?'
p959
tp960
Rp961
ssS'MORAN MICHAEL P'
p962
(dp963
g3
I672
sg4
g5
sg6
g5
sg7
I00
sg8
g5
sg9
S'michael.moran@enron.com'
p964
sg11
g5
sg12
g13
(g17
S'\x00\x00\x00\x00\x00\x00\x00\x00'
p965
tp966
Rp967
sg23
g5
sg24
I127
sg25
g5
sg26
I19
sg27
g5
sg28
g13
(g17
S'\x00\x00\x00\x00\x00\x00\x00\x00'
p968
tp969
Rp970
sg32
g5
sg33
g5
sg34
I221141
sg35
I0
sg36
I0
sg37
I161602
sg38
g5
sg39
g5
sg40
I59539
sg41
g13
(g17
S'\x00\x00\x00\x00\x00\x00\x00\x00'
p971
tp972
Rp973
ssS'REDMOND BRIAN L'
p974
(dp975
g3
I1671
sg4
g5
sg6
I14689
sg7
I00
sg8
g5
sg9
S'brian.redmond@enron.com'
p976
sg11
g5
sg12
g13
(g17
S'\x8ck.\xe7\xcd@\xbf?'
p977
tp978
Rp979
sg23
g5
sg24
I1063
sg25
g5
sg26
I221
sg27
g5
sg28
g13
(g17
S'\x9cMa\x9cMa\xcc?'
p980
tp981
Rp982
sg32
g5
sg33
g5
sg34
I7890324
sg35
I204
sg36
I49
sg37
I381285
sg38
I96840
sg39
I111529
sg40
I7509039
sg41
g13
(g17
S't\x05\x91\x14\x00\xd5P@'
p983
tp984
Rp985
ssS'BAZELIDES PHILIP J'
p986
(dp987
g3
g5
sg4
I684694
sg6
g5
sg7
I00
sg8
g5
sg9
g5
sg11
I93750
sg12
g13
(g17
S'\x00\x00\x00\x00\x00\x00\x00\x00'
p988
tp989
Rp990
sg23
g5
sg24
g5
sg25
g5
sg26
g5
sg27
I874
sg28
g13
(g17
S'\x00\x00\x00\x00\x00\x00\x00\x00'
p991
tp992
Rp993
sg32
g5
sg33
g5
sg34
I1599641
sg35
g5
sg36
g5
sg37
g5
sg38
I80818
sg39
I860136
sg40
I1599641
sg41
g13
(g17
S'8\x1d\xa5\xf6\x8c\xc1\xfd?'
p994
tp995
Rp996
ssS'BELDEN TIMOTHY N'
p997
(dp998
g3
I7991
sg4
I2144013
sg6
I17355
sg7
I01
sg8
I-2334434
sg9
S'tim.belden@enron.com'
p999
sg11
g5
sg12
g13
(g17
S'\xdfN\xae\xb9\x847\x9d?'
p1000
tp1001
Rp1002
sg23
g5
sg24
I5521
sg25
g5
sg26
I484
sg27
I210698
sg28
g13
(g17
S'3(\x15&\xde\x8f\xcc?'
p1003
tp1004
Rp1005
sg32
g5
sg33
I5249999
sg34
I1110705
sg35
I228
sg36
I108
sg37
I157569
sg38
I213999
sg39
I5501630
sg40
I953136
sg41
g13
(g17
S'\x06\xc4\xcd\xb5\xed,\xc6?'
p1006
tp1007
Rp1008
ssS'DURAN WILLIAM D'
p1009
(dp1010
g3
I904
sg4
g5
sg6
I25785
sg7
I00
sg8
g5
sg9
S'w.duran@enron.com'
p1011
sg11
I1105218
sg12
g13
(g17
S'\x7fH\xe0\xed\x87\x04\xbe?'
p1012
tp1013
Rp1014
sg23
g5
sg24
I599
sg25
g5
sg26
I12
sg27
I1568
sg28
g13
(g17
S'\x00\x00\x00\x00\x00\x00\xd0?'
p1015
tp1016
Rp1017
sg32
g5
sg33
I750000
sg34
I1640910
sg35
I106
sg36
I3
sg37
I189041
sg38
I210692
sg39
I2093263
sg40
I1451869
sg41
g13
(g17
S'f\xf3e`\xe61\xe6?'
p1018
tp1019
Rp1020
ssS'THORN TERENCE H'
p1021
(dp1022
g3
I266
sg4
I16586
sg6
I46145
sg7
I00
sg8
g5
sg9
S'terence.thorn@enron.com'
p1023
sg11
I200000
sg12
g13
(g17
S'\x00\x00\x00\x00\x00\x00\x00\x00'
p1024
tp1025
Rp1026
sg23
g5
sg24
I73
sg25
g5
sg26
I41
sg27
I426629
sg28
g13
(g17
S'\x00\x00\x00\x00\x00\x00\x00\x00'
p1027
tp1028
Rp1029
sg32
g5
sg33
g5
sg34
I4817796
sg35
I0
sg36
I0
sg37
I365320
sg38
I222093
sg39
I911453
sg40
I4452476
sg41
g13
(g17
S":';\x85E\x8a\x13@"
p1030
tp1031
Rp1032
ssS'FASTOW ANDREW S'
p1033
(dp1034
g3
g5
sg4
g5
sg6
I55921
sg7
I01
sg8
I-1386055
sg9
S'andrew.fastow@enron.com'
p1035
sg11
I1736055
sg12
g13
(g17
S'\x00\x00\x00\x00\x00\x00\x00\x00'
p1036
tp1037
Rp1038
sg23
g5
sg24
g5
sg25
g5
sg26
g5
sg27
I277464
sg28
g13
(g17
S'\x00\x00\x00\x00\x00\x00\x00\x00'
p1039
tp1040
Rp1041
sg32
g5
sg33
I1300000
sg34
I1794412
sg35
g5
sg36
g5
sg37
I1794412
sg38
I440698
sg39
I2424083
sg40
g5
sg41
g13
(g17
S'\x00\x00\x00\x00\x00\x00\x00\x00'
p1042
tp1043
Rp1044
ssS'FOY JOE'
p1045
(dp1046
g3
I57
sg4
I181755
sg6
g5
sg7
I00
sg8
g5
sg9
S'tracy.foy@enron.com'
p1047
sg11
g5
sg12
g13
(g17
S'\x00\x00\x00\x00\x00\x00\x00\x00'
p1048
tp1049
Rp1050
sg23
g5
sg24
I2
sg25
g5
sg26
I13
sg27
g5
sg28
g13
(g17
S'\x00\x00\x00\x00\x00\x00\x00\x00'
p1051
tp1052
Rp1053
sg32
g5
sg33
g5
sg34
I343434
sg35
I0
sg36
I0
sg37
g5
sg38
g5
sg39
I181755
sg40
I343434
sg41
g13
(g17
S'PQM\x16\x92;\xfe?'
p1054
tp1055
Rp1056
ssS'CALGER CHRISTOPHER F'
p1057
(dp1058
g3
I2598
sg4
g5
sg6
I35818
sg7
I01
sg8
I-262500
sg9
S'christopher.calger@enron.com'
p1059
sg11
I375304
sg12
g13
(g17
S'\x97\x1b<\xd5\xe2\x9b\xb3?'
p1060
tp1061
Rp1062
sg23
g5
sg24
I2188
sg25
g5
sg26
I144
sg27
I486
sg28
g13
(g17
S'\x8e\xe38\x8e\xe38\xc6?'
p1063
tp1064
Rp1065
sg32
g5
sg33
I1250000
sg34
I126027
sg35
I199
sg36
I25
sg37
I126027
sg38
I240189
sg39
I1639297
sg40
g5
sg41
g13
(g17
S'\x00\x00\x00\x00\x00\x00\x00\x00'
p1066
tp1067
Rp1068
ssS'RICE KENNETH D'
p1069
(dp1070
g3
I905
sg4
g5
sg6
I46950
sg7
I01
sg8
I-3504386
sg9
S'ken.rice@enron.com'
p1071
sg11
I1617011
sg12
g13
(g17
S'K81B\xe6\xc2\xa7?'
p1072
tp1073
Rp1074
sg23
g5
sg24
I864
sg25
g5
sg26
I18
sg27
I174839
sg28
g13
(g17
S'\x1c\xc7q\x1c\xc7q\xcc?'
p1075
tp1076
Rp1077
sg32
g5
sg33
I1750000
sg34
I22542539
sg35
I42
sg36
I4
sg37
I2748364
sg38
I420636
sg39
I505050
sg40
I19794175
sg41
g13
(g17
S'\x8a\xcd\xca\x06\xa4\x98C@'
p1078
tp1079
Rp1080
ssS'KAMINSKI WINCENTY J'
p1081
(dp1082
g3
I4607
sg4
g5
sg6
I83585
sg7
I00
sg8
g5
sg9
S'vince.kaminski@enron.com'
p1083
sg11
I323466
sg12
g13
(g17
S'\x89\xa6\xb5\xc5\xe69\x82?'
p1084
tp1085
Rp1086
sg23
g5
sg24
I583
sg25
g5
sg26
I14368
sg27
I4669
sg28
g13
(g17
S'\xba:\xd9C\xc9_\x88?'
p1087
tp1088
Rp1089
sg32
g5
sg33
I400000
sg34
I976037
sg35
I41
sg36
I171
sg37
I126027
sg38
I275101
sg39
I1086821
sg40
I850010
sg41
g13
(g17
S'\xcb\x13S\xa8\x04\x07\xe9?'
p1090
tp1091
Rp1092
ssS'LOCKHART EUGENE E'
p1093
(dp1094
g3
g5
sg4
g5
sg6
g5
sg7
I00
sg8
g5
sg9
g5
sg11
g5
sg12
g13
(g17
S'\x00\x00\x00\x00\x00\x00\x00\x00'
p1095
tp1096
Rp1097
sg23
g5
sg24
g5
sg25
g5
sg26
g5
sg27
g5
sg28
g13
(g17
S'\x00\x00\x00\x00\x00\x00\x00\x00'
p1098
tp1099
Rp1100
sg32
g5
sg33
g5
sg34
g5
sg35
g5
sg36
g5
sg37
g5
sg38
g5
sg39
g5
sg40
g5
sg41
g13
(g17
S'\x00\x00\x00\x00\x00\x00\x00\x00'
p1101
tp1102
Rp1103
ssS'COX DAVID'
p1104
(dp1105
g3
I102
sg4
g5
sg6
I27861
sg7
I00
sg8
I-41250
sg9
S'chip.cox@enron.com'
p1106
sg11
g5
sg12
g13
(g17
S'\x00\x00\x00\x00\x00\x00\x00\x00'
p1107
tp1108
Rp1109
sg23
g5
sg24
I71
sg25
g5
sg26
I33
sg27
I494
sg28
g13
(g17
S'\x08\x1f|\xf0\xc1\x07\xbf?'
p1110
tp1111
Rp1112
sg32
g5
sg33
I800000
sg34
I495633
sg35
I0
sg36
I4
sg37
I378082
sg38
I314288
sg39
I1101393
sg40
I117551
sg41
g13
(g17
S'\xe4\\\xb7\xfb\x9dR\xbb?'
p1113
tp1114
Rp1115
ssS'OVERDYKE JR JERE C'
p1116
(dp1117
g3
g5
sg4
g5
sg6
I18834
sg7
I00
sg8
g5
sg9
S'jere.overdyke@enron.com'
p1118
sg11
I135836
sg12
g13
(g17
S'\x00\x00\x00\x00\x00\x00\x00\x00'
p1119
tp1120
Rp1121
sg23
g5
sg24
g5
sg25
g5
sg26
g5
sg27
I176
sg28
g13
(g17
S'\x00\x00\x00\x00\x00\x00\x00\x00'
p1122
tp1123
Rp1124
sg32
g5
sg33
g5
sg34
I7307594
sg35
g5
sg36
g5
sg37
I2041016
sg38
I94941
sg39
I249787
sg40
I5266578
sg41
g13
(g17
S'9\xa9Y\x19\x93\x155@'
p1125
tp1126
Rp1127
ssS'PEREIRA PAULO V. FERRAZ'
p1128
(dp1129
g3
g5
sg4
g5
sg6
I27942
sg7
I00
sg8
I-101250
sg9
g5
sg11
g5
sg12
g13
(g17
S'\x00\x00\x00\x00\x00\x00\x00\x00'
p1130
tp1131
Rp1132
sg23
g5
sg24
g5
sg25
g5
sg26
g5
sg27
g5
sg28
g13
(g17
S'\x00\x00\x00\x00\x00\x00\x00\x00'
p1133
tp1134
Rp1135
sg32
I101250
sg33
g5
sg34
g5
sg35
g5
sg36
g5
sg37
g5
sg38
g5
sg39
I27942
sg40
g5
sg41
g13
(g17
S'\x00\x00\x00\x00\x00\x00\x00\x00'
p1136
tp1137
Rp1138
ssS'STABLER FRANK'
p1139
(dp1140
g3
g5
sg4
g5
sg6
I16514
sg7
I00
sg8
g5
sg9
S'frank.stabler@enron.com'
p1141
sg11
g5
sg12
g13
(g17
S'\x00\x00\x00\x00\x00\x00\x00\x00'
p1142
tp1143
Rp1144
sg23
g5
sg24
g5
sg25
g5
sg26
g5
sg27
I356071
sg28
g13
(g17
S'\x00\x00\x00\x00\x00\x00\x00\x00'
p1145
tp1146
Rp1147
sg32
g5
sg33
I500000
sg34
I511734
sg35
g5
sg36
g5
sg37
I511734
sg38
I239502
sg39
I1112087
sg40
g5
sg41
g13
(g17
S'\x00\x00\x00\x00\x00\x00\x00\x00'
p1148
tp1149
Rp1150
ssS'SKILLING JEFFREY K'
p1151
(dp1152
g3
I3627
sg4
g5
sg6
I29336
sg7
I01
sg8
g5
sg9
S'jeff.skilling@enron.com'
p1153
sg11
I1920000
sg12
g13
(g17
S'\xbet\x9e1C\xd8\x98?'
p1154
tp1155
Rp1156
sg23
g5
sg24
I2042
sg25
g5
sg26
I108
sg27
I22122
sg28
g13
(g17
S'r\x1c\xc7q\x1c\xc7\xd1?'
p1157
tp1158
Rp1159
sg32
g5
sg33
I5600000
sg34
I26093672
sg35
I88
sg36
I30
sg37
I6843672
sg38
I1111258
sg39
I8682716
sg40
I19250000
sg41
g13
(g17
S'\xc2l$\xc6\x83\xbc\x01@'
p1160
tp1161
Rp1162
ssS'BLAKE JR. NORMAN P'
p1163
(dp1164
g3
g5
sg4
g5
sg6
I1279
sg7
I00
sg8
I-113784
sg9
g5
sg11
g5
sg12
g13
(g17
S'\x00\x00\x00\x00\x00\x00\x00\x00'
p1165
tp1166
Rp1167
sg23
g5
sg24
g5
sg25
g5
sg26
g5
sg27
g5
sg28
g13
(g17
S'\x00\x00\x00\x00\x00\x00\x00\x00'
p1168
tp1169
Rp1170
sg32
I113784
sg33
g5
sg34
g5
sg35
g5
sg36
g5
sg37
g5
sg38
g5
sg39
I1279
sg40
g5
sg41
g13
(g17
S'\x00\x00\x00\x00\x00\x00\x00\x00'
p1171
tp1172
Rp1173
ssS'SHERRICK JEFFREY B'
p1174
(dp1175
g3
I613
sg4
g5
sg6
g5
sg7
I00
sg8
g5
sg9
S'jeffrey.sherrick@enron.com'
p1176
sg11
g5
sg12
g13
(g17
S'\xf8\x83t5\x80I\xb0?'
p1177
tp1178
Rp1179
sg23
g5
sg24
I583
sg25
g5
sg26
I25
sg27
g5
sg28
g13
(g17
S'\n\xd7\xa3p=\n\xe7?'
p1180
tp1181
Rp1182
sg32
g5
sg33
g5
sg34
I1832468
sg35
I39
sg36
I18
sg37
I405999
sg38
g5
sg39
g5
sg40
I1426469
sg41
g13
(g17
S'\x00\x00\x00\x00\x00\x00\x00\x00'
p1183
tp1184
Rp1185
ssS'PRENTICE JAMES'
p1186
(dp1187
g3
g5
sg4
I564348
sg6
g5
sg7
I00
sg8
g5
sg9
S'james.prentice@enron.com'
p1188
sg11
g5
sg12
g13
(g17
S'\x00\x00\x00\x00\x00\x00\x00\x00'
p1189
tp1190
Rp1191
sg23
g5
sg24
g5
sg25
g5
sg26
g5
sg27
g5
sg28
g13
(g17
S'\x00\x00\x00\x00\x00\x00\x00\x00'
p1192
tp1193
Rp1194
sg32
g5
sg33
g5
sg34
I1095040
sg35
g5
sg36
g5
sg37
I208809
sg38
g5
sg39
I564348
sg40
I886231
sg41
g13
(g17
S'\xc7\xb7$\x8c4 \xf9?'
p1195
tp1196
Rp1197
ssS'GRAY RODNEY'
p1198
(dp1199
g3
g5
sg4
I93585
sg6
g5
sg7
I00
sg8
g5
sg9
g5
sg11
I365625
sg12
g13
(g17
S'\x00\x00\x00\x00\x00\x00\x00\x00'
p1200
tp1201
Rp1202
sg23
g5
sg24
g5
sg25
g5
sg26
g5
sg27
I680833
sg28
g13
(g17
S'\x00\x00\x00\x00\x00\x00\x00\x00'
p1203
tp1204
Rp1205
sg32
g5
sg33
g5
sg34
g5
sg35
g5
sg36
g5
sg37
g5
sg38
I6615
sg39
I1146658
sg40
g5
sg41
g13
(g17
S'\x00\x00\x00\x00\x00\x00\x00\x00'
p1206
tp1207
Rp1208
ssS'PICKERING MARK R'
p1209
(dp1210
g3
I898
sg4
g5
sg6
I31653
sg7
I00
sg8
g5
sg9
S'mark.pickering@enron.com'
p1211
sg11
g5
sg12
g13
(g17
S'\xa0\xe8hH\xc1\xed\x7f?'
p1212
tp1213
Rp1214
sg23
g5
sg24
I728
sg25
I400000
sg26
I67
sg27
g5
sg28
g13
(g17
S'\x00\x00\x00\x00\x00\x00\x00\x00'
p1215
tp1216
Rp1217
sg32
g5
sg33
I300000
sg34
I28798
sg35
I7
sg36
I0
sg37
g5
sg38
I655037
sg39
I1386690
sg40
I28798
sg41
g13
(g17
S'\x16\x08x=\x0fD\x95?'
p1218
tp1219
Rp1220
ssS'NOLES JAMES L'
p1221
(dp1222
g3
g5
sg4
I774401
sg6
g5
sg7
I00
sg8
g5
sg9
g5
sg11
g5
sg12
g13
(g17
S'\x00\x00\x00\x00\x00\x00\x00\x00'
p1223
tp1224
Rp1225
sg23
I-94556
sg24
g5
sg25
g5
sg26
g5
sg27
g5
sg28
g13
(g17
S'\x00\x00\x00\x00\x00\x00\x00\x00'
p1226
tp1227
Rp1228
sg32
g5
sg33
g5
sg34
I368705
sg35
g5
sg36
g5
sg37
I463261
sg38
g5
sg39
I774401
sg40
g5
sg41
g13
(g17
S'\x00\x00\x00\x00\x00\x00\x00\x00'
p1229
tp1230
Rp1231
ssS'KEAN STEVEN J'
p1232
(dp1233
g3
I12754
sg4
g5
sg6
I41953
sg7
I00
sg8
g5
sg9
S'steven.kean@enron.com'
p1234
sg11
I300000
sg12
g13
(g17
S'.\xc2c\x13\x15{\x86?'
p1235
tp1236
Rp1237
sg23
g5
sg24
I3639
sg25
g5
sg26
I6759
sg27
I1231
sg28
g13
(g17
S'\xc4@\xde\xcc\xc9P\xad?'
p1238
tp1239
Rp1240
sg32
g5
sg33
I1000000
sg34
I6153642
sg35
I140
sg36
I387
sg37
I4131594
sg38
I404338
sg39
I1747522
sg40
I2022048
sg41
g13
(g17
S'^\r-wu\x83\xf2?'
p1241
tp1242
Rp1243
ssS'FOWLER PEGGY'
p1244
(dp1245
g3
I517
sg4
g5
sg6
g5
sg7
I00
sg8
g5
sg9
S'kulvinder.fowler@enron.com'
p1246
sg11
g5
sg12
g13
(g17
S'\x00\x00\x00\x00\x00\x00\x00\x00'
p1247
tp1248
Rp1249
sg23
g5
sg24
I10
sg25
g5
sg26
I36
sg27
g5
sg28
g13
(g17
S'\x00\x00\x00\x00\x00\x00\x00\x00'
p1250
tp1251
Rp1252
sg32
g5
sg33
g5
sg34
I1884748
sg35
I0
sg36
I0
sg37
I560170
sg38
g5
sg39
g5
sg40
I1324578
sg41
g13
(g17
S'\x00\x00\x00\x00\x00\x00\x00\x00'
p1253
tp1254
Rp1255
ssS'WASAFF GEORGE'
p1256
(dp1257
g3
I400
sg4
I831299
sg6
g5
sg7
I00
sg8
I-583325
sg9
S'george.wasaff@enron.com'
p1258
sg11
I200000
sg12
g13
(g17
S')\\\x8f\xc2\xf5(\xac?'
p1259
tp1260
Rp1261
sg23
g5
sg24
I337
sg25
g5
sg26
I30
sg27
I1425
sg28
g13
(g17
S'\xde\xdd\xdd\xdd\xdd\xdd\xcd?'
p1262
tp1263
Rp1264
sg32
g5
sg33
I325000
sg34
I2056427
sg35
I22
sg36
I7
sg37
I388167
sg38
I259996
sg39
I1034395
sg40
I1668260
sg41
g13
(g17
S'\xaa\t\xe3\xf2\xfa\xcd\xf9?'
p1265
tp1266
Rp1267
ssS'WHITE JR THOMAS E'
p1268
(dp1269
g3
g5
sg4
g5
sg6
I81353
sg7
I00
sg8
g5
sg9
S'thomas.white@enron.com'
p1270
sg11
g5
sg12
g13
(g17
S'\x00\x00\x00\x00\x00\x00\x00\x00'
p1271
tp1272
Rp1273
sg23
g5
sg24
g5
sg25
g5
sg26
g5
sg27
I1085463
sg28
g13
(g17
S'\x00\x00\x00\x00\x00\x00\x00\x00'
p1274
tp1275
Rp1276
sg32
g5
sg33
I450000
sg34
I15144123
sg35
g5
sg36
g5
sg37
I13847074
sg38
I317543
sg39
I1934359
sg40
I1297049
sg41
g13
(g17
S'h\x06X\xdd\xfet\xe5?'
p1277
tp1278
Rp1279
ssS'CHRISTODOULOU DIOMEDES'
p1280
(dp1281
g3
g5
sg4
g5
sg6
g5
sg7
I00
sg8
g5
sg9
S'diomedes.christodoulou@enron.com'
p1282
sg11
g5
sg12
g13
(g17
S'\x00\x00\x00\x00\x00\x00\x00\x00'
p1283
tp1284
Rp1285
sg23
g5
sg24
g5
sg25
g5
sg26
g5
sg27
g5
sg28
g13
(g17
S'\x00\x00\x00\x00\x00\x00\x00\x00'
p1286
tp1287
Rp1288
sg32
g5
sg33
g5
sg34
I6077885
sg35
g5
sg36
g5
sg37
I950730
sg38
g5
sg39
g5
sg40
I5127155
sg41
g13
(g17
S'\x00\x00\x00\x00\x00\x00\x00\x00'
p1289
tp1290
Rp1291
ssS'ALLEN PHILLIP K'
p1292
(dp1293
g3
I2902
sg4
I2869717
sg6
I13868
sg7
I00
sg8
I-3081055
sg9
S'phillip.allen@enron.com'
p1294
sg11
I304805
sg12
g13
(g17
S'\x1f\xf6\xa7\xd8\x9c\x95\x90?'
p1295
tp1296
Rp1297
sg23
I-126027
sg24
I1407
sg25
g5
sg26
I2195
sg27
I152
sg28
g13
(g17
S'\xa9\x19\xccn\xceR\x9e?'
p1298
tp1299
Rp1300
sg32
g5
sg33
I4175000
sg34
I1729541
sg35
I47
sg36
I65
sg37
I126027
sg38
I201955
sg39
I4484442
sg40
I1729541
sg41
g13
(g17
S'\xab\x0fi\xc7\xe9\xae\xd8?'
p1301
tp1302
Rp1303
ssS'SHARP VICTORIA T'
p1304
(dp1305
g3
I3136
sg4
I187469
sg6
I116337
sg7
I00
sg8
g5
sg9
S'vicki.sharp@enron.com'
p1306
sg11
I422158
sg12
g13
(g17
S'\xd6\x87\xc6\xfa\xd0X\x7f?'
p1307
tp1308
Rp1309
sg23
g5
sg24
I2477
sg25
g5
sg26
I136
sg27
I2401
sg28
g13
(g17
S'\x97\x96\x96\x96\x96\x96\xa6?'
p1310
tp1311
Rp1312
sg32
g5
sg33
I600000
sg34
I494136
sg35
I24
sg36
I6
sg37
I213063
sg38
I248146
sg39
I1576511
sg40
I281073
sg41
g13
(g17
S'\x8c\xe5\xf0-$\xd2\xc6?'
p1313
tp1314
Rp1315
ssS'JAEDICKE ROBERT'
p1316
(dp1317
g3
g5
sg4
g5
sg6
g5
sg7
I00
sg8
I-25000
sg9
g5
sg11
g5
sg12
g13
(g17
S'\x00\x00\x00\x00\x00\x00\x00\x00'
p1318
tp1319
Rp1320
sg23
I-44093
sg24
g5
sg25
g5
sg26
g5
sg27
g5
sg28
g13
(g17
S'\x00\x00\x00\x00\x00\x00\x00\x00'
p1321
tp1322
Rp1323
sg32
I108750
sg33
g5
sg34
I431750
sg35
g5
sg36
g5
sg37
I44093
sg38
g5
sg39
I83750
sg40
I431750
sg41
g13
(g17
S'\xba\xe3J\x02\xf3\x9e\x14@'
p1324
tp1325
Rp1326
ssS'WINOKUR JR. HERBERT S'
p1327
(dp1328
g3
g5
sg4
g5
sg6
I1413
sg7
I00
sg8
I-25000
sg9
g5
sg11
g5
sg12
g13
(g17
S'\x00\x00\x00\x00\x00\x00\x00\x00'
p1329
tp1330
Rp1331
sg23
g5
sg24
g5
sg25
g5
sg26
g5
sg27
g5
sg28
g13
(g17
S'\x00\x00\x00\x00\x00\x00\x00\x00'
p1332
tp1333
Rp1334
sg32
I108579
sg33
g5
sg34
g5
sg35
g5
sg36
g5
sg37
g5
sg38
g5
sg39
I84992
sg40
g5
sg41
g13
(g17
S'\x00\x00\x00\x00\x00\x00\x00\x00'
p1335
tp1336
Rp1337
ssS'BROWN MICHAEL'
p1338
(dp1339
g3
I1486
sg4
g5
sg6
I49288
sg7
I00
sg8
g5
sg9
S'michael.brown@enron.com'
p1340
sg11
g5
sg12
g13
(g17
S'K\x13\xf8P\xa3\xea\x81?'
p1341
tp1342
Rp1343
sg23
g5
sg24
I761
sg25
g5
sg26
I41
sg27
g5
sg28
g13
(g17
S'\xfa\x18\x9c\x8f\xc1\xf9\x98?'
p1344
tp1345
Rp1346
sg32
g5
sg33
g5
sg34
g5
sg35
I13
sg36
I1
sg37
g5
sg38
g5
sg39
I49288
sg40
g5
sg41
g13
(g17
S'\x00\x00\x00\x00\x00\x00\x00\x00'
p1347
tp1348
Rp1349
ssS'BADUM JAMES P'
p1350
(dp1351
g3
g5
sg4
I178980
sg6
I3486
sg7
I00
sg8
g5
sg9
g5
sg11
g5
sg12
g13
(g17
S'\x00\x00\x00\x00\x00\x00\x00\x00'
p1352
tp1353
Rp1354
sg23
g5
sg24
g5
sg25
g5
sg26
g5
sg27
g5
sg28
g13
(g17
S'\x00\x00\x00\x00\x00\x00\x00\x00'
p1355
tp1356
Rp1357
sg32
g5
sg33
g5
sg34
I257817
sg35
g5
sg36
g5
sg37
g5
sg38
g5
sg39
I182466
sg40
I257817
sg41
g13
(g17
S']~w\x07{\x9b\xf6?'
p1358
tp1359
Rp1360
ssS'HUGHES JAMES A'
p1361
(dp1362
g3
I719
sg4
g5
sg6
g5
sg7
I00
sg8
g5
sg9
S'james.hughes@enron.com'
p1363
sg11
g5
sg12
g13
(g17
S'\r5\xa5\xd0j\xec\xa8?'
p1364
tp1365
Rp1366
sg23
g5
sg24
I589
sg25
g5
sg26
I34
sg27
g5
sg28
g13
(g17
S'\xd3\xd2\xd2\xd2\xd2\xd2\xc2?'
p1367
tp1368
Rp1369
sg32
g5
sg33
g5
sg34
I1118394
sg35
I35
sg36
I5
sg37
I363428
sg38
g5
sg39
g5
sg40
I754966
sg41
g13
(g17
S'\x00\x00\x00\x00\x00\x00\x00\x00'
p1370
tp1371
Rp1372
ssS'REYNOLDS LAWRENCE'
p1373
(dp1374
g3
g5
sg4
I51365
sg6
I8409
sg7
I00
sg8
I-200000
sg9
g5
sg11
I156250
sg12
g13
(g17
S'\x00\x00\x00\x00\x00\x00\x00\x00'
p1375
tp1376
Rp1377
sg23
I-140264
sg24
g5
sg25
g5
sg26
g5
sg27
I202052
sg28
g13
(g17
S'\x00\x00\x00\x00\x00\x00\x00\x00'
p1378
tp1379
Rp1380
sg32
g5
sg33
I100000
sg34
I4221891
sg35
g5
sg36
g5
sg37
I201483
sg38
I76399
sg39
I394475
sg40
I4160672
sg41
g13
(g17
S'\xa6\xb3\xf8I@\x18%@'
p1381
tp1382
Rp1383
ssS'DIMICHELE RICHARD G'
p1384
(dp1385
g3
g5
sg4
g5
sg6
I35812
sg7
I00
sg8
g5
sg9
S'richard.dimichele@enron.com'
p1386
sg11
I694862
sg12
g13
(g17
S'\x00\x00\x00\x00\x00\x00\x00\x00'
p1387
tp1388
Rp1389
sg23
g5
sg24
g5
sg25
g5
sg26
g5
sg27
I374689
sg28
g13
(g17
S'\x00\x00\x00\x00\x00\x00\x00\x00'
p1390
tp1391
Rp1392
sg32
g5
sg33
I1000000
sg34
I8317782
sg35
g5
sg36
g5
sg37
I126027
sg38
I262788
sg39
I2368151
sg40
I8191755
sg41
g13
(g17
S'\xf2\x85\xb00O\xac\x0b@'
p1393
tp1394
Rp1395
ssS'BHATNAGAR SANJAY'
p1396
(dp1397
g3
I523
sg4
g5
sg6
g5
sg7
I00
sg8
g5
sg9
S'sanjay.bhatnagar@enron.com'
p1398
sg11
g5
sg12
g13
(g17
S'\x00\x00\x00\x00\x00\x00\x00\x00'
p1399
tp1400
Rp1401
sg23
I15456290
sg24
I463
sg25
g5
sg26
I29
sg27
I137864
sg28
g13
(g17
S'\x96{\x1aa\xb9\xa7\xa1?'
p1402
tp1403
Rp1404
sg32
I137864
sg33
g5
sS'total_stock_value'
p1405
S'NaN'
p1406
sg35
I0
sg36
I1
sg37
I-2604490
sg38
g5
sg39
I15456290
sg40
I2604490
sg41
g13
(g17
S'#\xf6\r\x82\xa1\x91\xc5?'
p1407
tp1408
Rp1409
ssS'CARTER REBECCA C'
p1410
(dp1411
g3
I312
sg4
g5
sg6
g5
sg7
I00
sg8
I-159792
sg9
S'rebecca.carter@enron.com'
p1412
sg11
I75000
sg12
g13
(g17
S'\xb8|\xcb\xb7|\xcb\xb7?'
p1413
tp1414
Rp1415
sg23
I-307301
sg24
I196
sg25
g5
sg26
I15
sg27
I540
sg28
g13
(g17
S'\xde\xdd\xdd\xdd\xdd\xdd\xdd?'
p1416
tp1417
Rp1418
sg32
g5
sg33
I300000
sg34
g5
sg35
I29
sg36
I7
sg37
I307301
sg38
I261809
sg39
I477557
sg40
g5
sg41
g13
(g17
S'\x00\x00\x00\x00\x00\x00\x00\x00'
p1419
tp1420
Rp1421
ssS'BUCHANAN HAROLD G'
p1422
(dp1423
g3
I1088
sg4
g5
sg6
I600
sg7
I00
sg8
g5
sg9
S'john.buchanan@enron.com'
p1424
sg11
I304805
sg12
g13
(g17
S'\x00\x00\x00\x00\x00\x00\x00\x00'
p1425
tp1426
Rp1427
sg23
g5
sg24
I23
sg25
g5
sg26
I125
sg27
I1215
sg28
g13
(g17
S'\x00\x00\x00\x00\x00\x00\x00\x00'
p1428
tp1429
Rp1430
sg32
g5
sg33
I500000
sg34
I1014505
sg35
I0
sg36
I0
sg37
I189041
sg38
I248017
sg39
I1054637
sg40
I825464
sg41
g13
(g17
S'\x00sn\x1d\xe0\x0b\xe9?'
p1431
tp1432
Rp1433
ssS'YEAP SOON'
p1434
(dp1435
g3
g5
sg4
g5
sg6
I55097
sg7
I00
sg8
g5
sg9
g5
sg11
g5
sg12
g13
(g17
S'\x00\x00\x00\x00\x00\x00\x00\x00'
p1436
tp1437
Rp1438
sg23
g5
sg24
g5
sg25
g5
sg26
g5
sg27
g5
sg28
g13
(g17
S'\x00\x00\x00\x00\x00\x00\x00\x00'
p1439
tp1440
Rp1441
sg32
g5
sg33
g5
sg34
I192758
sg35
g5
sg36
g5
sg37
g5
sg38
g5
sg39
I55097
sg40
I192758
sg41
g13
(g17
S'\x0e8\xe0w\xf8\xfc\x0b@'
p1442
tp1443
Rp1444
ssS'MURRAY JULIA H'
p1445
(dp1446
g3
I2192
sg4
g5
sg6
I57580
sg7
I00
sg8
g5
sg9
S'julia.murray@enron.com'
p1447
sg11
I125000
sg12
g13
(g17
S'\x7f\xdc\xba\xbc\x03\x8et?'
p1448
tp1449
Rp1450
sg23
g5
sg24
I395
sg25
g5
sg26
I45
sg27
I330
sg28
g13
(g17
S'\x17l\xc1\x16l\xc1\xa6?'
p1451
tp1452
Rp1453
sg32
g5
sg33
I400000
sg34
I597461
sg35
I11
sg36
I2
sg37
I196983
sg38
I229284
sg39
I812194
sg40
I400478
sg41
g13
(g17
S'\x8c\xb9@\x8e\xa6\x8e\xdf?'
p1454
tp1455
Rp1456
ssS'GARLAND C KEVIN'
p1457
(dp1458
g3
I209
sg4
g5
sg6
I48405
sg7
I00
sg8
g5
sg9
S'kevin.garland@enron.com'
p1459
sg11
I375304
sg12
g13
(g17
S'<\x9f\x1e7c\x7f\xa8?'
p1460
tp1461
Rp1462
sg23
g5
sg24
I178
sg25
g5
sg26
I44
sg27
I60814
sg28
g13
(g17
S'\xa3\x8b.\xba\xe8\xa2\xe3?'
p1463
tp1464
Rp1465
sg32
g5
sg33
I850000
sg34
I896153
sg35
I10
sg36
I27
sg37
I259907
sg38
I231946
sg39
I1566469
sg40
I636246
sg41
g13
(g17
S'\x13"\xb4z\x9e\xfe\xd9?'
p1466
tp1467
Rp1468
ssS'DODSON KEITH'
p1469
(dp1470
g3
I176
sg4
g5
sg6
I28164
sg7
I00
sg8
g5
sg9
S'keith.dodson@enron.com'
p1471
sg11
g5
sg12
g13
(g17
S'\x17]t\xd1E\x17\xad?'
p1472
tp1473
Rp1474
sg23
g5
sg24
I114
sg25
g5
sg26
I14
sg27
I774
sg28
g13
(g17
S'\xdb\xb6m\xdb\xb6m\xcb?'
p1475
tp1476
Rp1477
sg32
g5
sg33
I70000
sg34
g5
sg35
I10
sg36
I3
sg37
g5
sg38
I221003
sg39
I319941
sg40
g5
sg41
g13
(g17
S'\x00\x00\x00\x00\x00\x00\x00\x00'
p1478
tp1479
Rp1480
ssS'YEAGER F SCOTT'
p1481
(dp1482
g3
g5
sg4
g5
sg6
I53947
sg7
I01
sg8
g5
sg9
S'scott.yeager@enron.com'
p1483
sg11
g5
sg12
g13
(g17
S'\x00\x00\x00\x00\x00\x00\x00\x00'
p1484
tp1485
Rp1486
sg23
g5
sg24
g5
sg25
g5
sg26
g5
sg27
I147950
sg28
g13
(g17
S'\x00\x00\x00\x00\x00\x00\x00\x00'
p1487
tp1488
Rp1489
sg32
g5
sg33
g5
sg34
I11884758
sg35
g5
sg36
g5
sg37
I3576206
sg38
I158403
sg39
I360300
sg40
I8308552
sg41
g13
(g17
S"\xd2\xcf'Xb\x0f7@"
p1490
tp1491
Rp1492
ssS'HIRKO JOSEPH'
p1493
(dp1494
g3
g5
sg4
I10259
sg6
I77978
sg7
I01
sg8
g5
sg9
S'joe.hirko@enron.com'
p1495
sg11
g5
sg12
g13
(g17
S'\x00\x00\x00\x00\x00\x00\x00\x00'
p1496
tp1497
Rp1498
sg23
g5
sg24
g5
sg25
g5
sg26
g5
sg27
I2856
sg28
g13
(g17
S'\x00\x00\x00\x00\x00\x00\x00\x00'
p1499
tp1500
Rp1501
sg32
g5
sg33
g5
sg34
I30766064
sg35
g5
sg36
g5
sg37
g5
sg38
g5
sg39
I91093
sg40
I30766064
sg41
g13
(g17
S'8\x0b\xc8*\xe5\x1bu@'
p1502
tp1503
Rp1504
ssS'DIETRICH JANET R'
p1505
(dp1506
g3
I2572
sg4
g5
sg6
I3475
sg7
I00
sg8
g5
sg9
S'janet.dietrich@enron.com'
p1507
sg11
I556416
sg12
g13
(g17
S'\xe8>v\x1d\x92[\xbe?'
p1508
tp1509
Rp1510
sg23
g5
sg24
I1902
sg25
g5
sg26
I63
sg27
I473
sg28
g13
(g17
S'\x1c\xc7q\x1c\xc7q\xcc?'
p1511
tp1512
Rp1513
sg32
g5
sg33
I600000
sg34
I1865087
sg35
I305
sg36
I14
sg37
I315068
sg38
I250100
sg39
I1410464
sg40
I1550019
sg41
g13
(g17
S'\xd9\x13\xa3\xdaD\x95\xf1?'
p1514
tp1515
Rp1516
ssS'DERRICK JR. JAMES V'
p1517
(dp1518
g3
I2181
sg4
g5
sg6
I51124
sg7
I00
sg8
I-1284000
sg9
S'james.derrick@enron.com'
p1519
sg11
I484000
sg12
g13
(g17
S'M\x16\xda&q\x0c\x9e?'
p1520
tp1521
Rp1522
sg23
I-1787380
sg24
I1401
sg25
g5
sg26
I909
sg27
I7482
sg28
g13
(g17
S'\x89G\x8a\xa9\xbe\x87\x96?'
p1523
tp1524
Rp1525
sg32
g5
sg33
I800000
sg34
I8831913
sg35
I64
sg36
I20
sg37
I1787380
sg38
I492375
sg39
I550981
sg40
I8831913
sg41
g13
(g17
S'\x0e\x1c\x13\xeb\x88\x070@'
p1526
tp1527
Rp1528
ssS'FREVERT MARK A'
p1529
(dp1530
g3
I3275
sg4
I6426990
sg6
I86987
sg7
I00
sg8
I-3367011
sg9
S'mark.frevert@enron.com'
p1531
sg11
I1617011
sg12
g13
(g17
S'\x8f\xf7\xc3\xff\xa8\xea\xb2?'
p1532
tp1533
Rp1534
sg23
g5
sg24
I2979
sg25
I2000000
sg26
I21
sg27
I7427621
sg28
g13
(g17
S'\x92$I\x92$I\xd2?'
p1535
tp1536
Rp1537
sg32
g5
sg33
I2000000
sg34
I14622185
sg35
I242
sg36
I6
sg37
I4188667
sg38
I1060932
sg39
I17252530
sg40
I10433518
sg41
g13
(g17
S'7K\xf7\xce"Z\xe3?'
p1538
tp1539
Rp1540
ssS'PAI LOU L'
p1541
(dp1542
g3
g5
sg4
g5
sg6
I32047
sg7
I00
sg8
g5
sg9
S'lou.pai@enron.com'
p1543
sg11
g5
sg12
g13
(g17
S'\x00\x00\x00\x00\x00\x00\x00\x00'
p1544
tp1545
Rp1546
sg23
g5
sg24
g5
sg25
g5
sg26
g5
sg27
I1829457
sg28
g13
(g17
S'\x00\x00\x00\x00\x00\x00\x00\x00'
p1547
tp1548
Rp1549
sg32
g5
sg33
I1000000
sg34
I23817930
sg35
g5
sg36
g5
sg37
I8453763
sg38
I261879
sg39
I3123383
sg40
I15364167
sg41
g13
(g17
S'$\x0e\x0e\xfc"\xad\x13@'
p1550
tp1551
Rp1552
ssS'BAY FRANKLIN R'
p1553
(dp1554
g3
g5
sg4
I260455
sg6
I129142
sg7
I00
sg8
I-201641
sg9
S'frank.bay@enron.com'
p1555
sg11
g5
sg12
g13
(g17
S'\x00\x00\x00\x00\x00\x00\x00\x00'
p1556
tp1557
Rp1558
sg23
I-82782
sg24
g5
sg25
g5
sg26
g5
sg27
I69
sg28
g13
(g17
S'\x00\x00\x00\x00\x00\x00\x00\x00'
p1559
tp1560
Rp1561
sg32
g5
sg33
I400000
sg34
I63014
sg35
g5
sg36
g5
sg37
I145796
sg38
I239671
sg39
I827696
sg40
g5
sg41
g13
(g17
S'\x00\x00\x00\x00\x00\x00\x00\x00'
p1562
tp1563
Rp1564
ssS'HAYSLETT RODERICK J'
p1565
(dp1566
g3
I2649
sg4
g5
sg6
g5
sg7
I00
sg8
g5
sg9
S'rod.hayslett@enron.com'
p1567
sg11
g5
sg12
g13
(g17
S'\xe3\x98"*,\x0f\x8b?'
p1568
tp1569
Rp1570
sg23
g5
sg24
I571
sg25
g5
sg26
I1061
sg27
g5
sg28
g13
(g17
S'\xc7(\xcb\xfe`V\xa2?'
p1571
tp1572
Rp1573
sg32
g5
sg33
g5
sg34
I346663
sg35
I35
sg36
I38
sg37
I346663
sg38
g5
sg39
g5
sg40
g5
sg41
g13
(g17
S'\x00\x00\x00\x00\x00\x00\x00\x00'
p1574
tp1575
Rp1576
ssS'FUGH JOHN L'
p1577
(dp1578
g3
g5
sg4
I50591
sg6
g5
sg7
I00
sg8
g5
sg9
g5
sg11
g5
sg12
g13
(g17
S'\x00\x00\x00\x00\x00\x00\x00\x00'
p1579
tp1580
Rp1581
sg23
g5
sg24
g5
sg25
g5
sg26
g5
sg27
g5
sg28
g13
(g17
S'\x00\x00\x00\x00\x00\x00\x00\x00'
p1582
tp1583
Rp1584
sg32
g5
sg33
g5
sg34
I176378
sg35
g5
sg36
g5
sg37
g5
sg38
g5
sg39
I50591
sg40
I176378
sg41
g13
(g17
S'|W)*\x0c\xe4\x0b@'
p1585
tp1586
Rp1587
ssS'FALLON JAMES B'
p1588
(dp1589
g3
I1755
sg4
g5
sg6
I95924
sg7
I00
sg8
g5
sg9
S'jim.fallon@enron.com'
p1590
sg11
I374347
sg12
g13
(g17
S'\x19\x88\x81\x18\x88\x81\x98?'
p1591
tp1592
Rp1593
sg23
g5
sg24
I1604
sg25
g5
sg26
I75
sg27
I401481
sg28
g13
(g17
S'\x93_,\xf9\xc5\x92\xdf?'
p1594
tp1595
Rp1596
sg32
g5
sg33
I2500000
sg34
I2332399
sg35
I42
sg36
I37
sg37
I1392142
sg38
I304588
sg39
I3676340
sg40
I940257
sg41
g13
(g17
S'\x9fI\xe1\xf2Z^\xd0?'
p1597
tp1598
Rp1599
ssS'KOENIG MARK E'
p1600
(dp1601
g3
I2374
sg4
g5
sg6
I127017
sg7
I01
sg8
g5
sg9
S'mark.koenig@enron.com'
p1602
sg11
I300000
sg12
g13
(g17
S'N}\t\x1cj\xdc\x96?'
p1603
tp1604
Rp1605
sg23
g5
sg24
I2271
sg25
g5
sg26
I61
sg27
I150458
sg28
g13
(g17
S'.\x19\x82u\xb4y\xcf?'
p1606
tp1607
Rp1608
sg32
g5
sg33
I700000
sg34
I1920055
sg35
I53
sg36
I15
sg37
I1248318
sg38
I309946
sg39
I1587421
sg40
I671737
sg41
g13
(g17
S'\x8b\x19G\x10\x18\x15\xdb?'
p1609
tp1610
Rp1611
ssS'SAVAGE FRANK'
p1612
(dp1613
g3
g5
sg4
g5
sg6
g5
sg7
I00
sg8
I-121284
sg9
g5
sg11
g5
sg12
g13
(g17
S'\x00\x00\x00\x00\x00\x00\x00\x00'
p1614
tp1615
Rp1616
sg23
g5
sg24
g5
sg25
g5
sg26
g5
sg27
g5
sg28
g13
(g17
S'\x00\x00\x00\x00\x00\x00\x00\x00'
p1617
tp1618
Rp1619
sg32
I125034
sg33
g5
sg34
g5
sg35
g5
sg36
g5
sg37
g5
sg38
g5
sg39
I3750
sg40
g5
sg41
g13
(g17
S'\x00\x00\x00\x00\x00\x00\x00\x00'
p1620
tp1621
Rp1622
ssS'IZZO LAWRENCE L'
p1623
(dp1624
g3
I496
sg4
g5
sg6
I28093
sg7
I00
sg8
g5
sg9
S'larry.izzo@enron.com'
p1625
sg11
I312500
sg12
g13
(g17
S'\xe7\x9cs\xce9\xe7\xac?'
p1626
tp1627
Rp1628
sg23
g5
sg24
I437
sg25
g5
sg26
I19
sg27
I1553729
sg28
g13
(g17
S'y\r\xe55\x94\xd7\xd0?'
p1629
tp1630
Rp1631
sg32
g5
sg33
g5
sg34
I5819980
sg35
I28
sg36
I5
sg37
I3654808
sg38
I85274
sg39
I1979596
sg40
I2165172
sg41
g13
(g17
S'\xcb\xfao\x1b\xfa\x7f\xf1?'
p1632
tp1633
Rp1634
ssS'TILNEY ELIZABETH A'
p1635
(dp1636
g3
I460
sg4
g5
sg6
g5
sg7
I00
sg8
I-575000
sg9
S'elizabeth.tilney@enron.com'
p1637
sg11
I275000
sg12
g13
(g17
S'd!\x0bY\xc8B\x96?'
p1638
tp1639
Rp1640
sg23
g5
sg24
I379
sg25
g5
sg26
I19
sg27
I152055
sg28
g13
(g17
S'l(\xaf\xa1\xbc\x86\xe2?'
p1641
tp1642
Rp1643
sg32
g5
sg33
I300000
sg34
I1168042
sg35
I10
sg36
I11
sg37
I576792
sg38
I247338
sg39
I399393
sg40
I591250
sg41
g13
(g17
S'A\x1b\xe8\xfc\x99\xaf\xf7?'
p1644
tp1645
Rp1646
ssS'MARTIN AMANDA K'
p1647
(dp1648
g3
I1522
sg4
I85430
sg6
I8211
sg7
I00
sg8
g5
sg9
S'a..martin@enron.com'
p1649
sg11
I5145434
sg12
g13
(g17
S'\xce|5\xa9\x91\x87u?'
p1650
tp1651
Rp1652
sg23
g5
sg24
I477
sg25
g5
sg26
I230
sg27
I2818454
sg28
g13
(g17
S'\x00\x00\x00\x00\x00\x00\x00\x00'
p1653
tp1654
Rp1655
sg32
g5
sg33
g5
sg34
I2070306
sg35
I8
sg36
I0
sg37
g5
sg38
I349487
sg39
I8407016
sg40
I2070306
sg41
g13
(g17
S'E\xc8\xc8\xdbl\x85\xcf?'
p1656
tp1657
Rp1658
ssS'BUY RICHARD B'
p1659
(dp1660
g3
I3523
sg4
I649584
sg6
g5
sg7
I00
sg8
I-694862
sg9
S'rick.buy@enron.com'
p1661
sg11
I769862
sg12
g13
(g17
S'\xd6\x13e\x1b\xed\xab\xa6?'
p1662
tp1663
Rp1664
sg23
g5
sg24
I2333
sg25
g5
sg26
I1053
sg27
I400572
sg28
g13
(g17
S'\x83i&J\xdbB\xb1?'
p1665
tp1666
Rp1667
sg32
g5
sg33
I900000
sg34
I3444470
sg35
I156
sg36
I71
sg37
I901657
sg38
I330546
sg39
I2355702
sg40
I2542813
sg41
g13
(g17
S'~\xca\xa9QWE\xf1?'
p1668
tp1669
Rp1670
ssS'GRAMM WENDY L'
p1671
(dp1672
g3
g5
sg4
g5
sg6
g5
sg7
I00
sg8
g5
sg9
g5
sg11
g5
sg12
g13
(g17
S'\x00\x00\x00\x00\x00\x00\x00\x00'
p1673
tp1674
Rp1675
sg23
g5
sg24
g5
sg25
g5
sg26
g5
sg27
g5
sg28
g13
(g17
S'\x00\x00\x00\x00\x00\x00\x00\x00'
p1676
tp1677
Rp1678
sg32
I119292
sg33
g5
sg34
g5
sg35
g5
sg36
g5
sg37
g5
sg38
g5
sg39
I119292
sg40
g5
sg41
g13
(g17
S'\x00\x00\x00\x00\x00\x00\x00\x00'
p1679
tp1680
Rp1681
ssS'CAUSEY RICHARD A'
p1682
(dp1683
g3
I1892
sg4
g5
sg6
I30674
sg7
I01
sg8
I-235000
sg9
S'richard.causey@enron.com'
p1684
sg11
I350000
sg12
g13
(g17
S'|\x13<y d\x9f?'
p1685
tp1686
Rp1687
sg23
g5
sg24
I1585
sg25
g5
sg26
I49
sg27
I307895
sg28
g13
(g17
S'\xd6\x87\xc6\xfa\xd0X\xcf?'
p1688
tp1689
Rp1690
sg32
g5
sg33
I1000000
sg34
I2502063
sg35
I58
sg36
I12
sg37
I2502063
sg38
I415189
sg39
I1868758
sg40
g5
sg41
g13
(g17
S'\x00\x00\x00\x00\x00\x00\x00\x00'
p1691
tp1692
Rp1693
ssS'TAYLOR MITCHELL S'
p1694
(dp1695
g3
I533
sg4
I227449
sg6
g5
sg7
I00
sg8
g5
sg9
S'mitchell.taylor@enron.com'
p1696
sg11
g5
sg12
g13
(g17
S'\x00\x00\x00\x00\x00\x00\x00\x00'
p1697
tp1698
Rp1699
sg23
g5
sg24
I300
sg25
g5
sg26
I29
sg27
g5
sg28
g13
(g17
S'\x00\x00\x00\x00\x00\x00\x00\x00'
p1700
tp1701
Rp1702
sg32
g5
sg33
I600000
sg34
I3745048
sg35
I0
sg36
I0
sg37
I563798
sg38
I265214
sg39
I1092663
sg40
I3181250
sg41
g13
(g17
S'x2w\x1f\xaeJ\x07@'
p1703
tp1704
Rp1705
ssS'DONAHUE JR JEFFREY M'
p1706
(dp1707
g3
I865
sg4
g5
sg6
I96268
sg7
I00
sg8
I-300000
sg9
S'jeff.donahue@enron.com'
p1708
sg11
g5
sg12
g13
(g17
S'\xcc\xafn\xca\xd4\xd1\xcb?'
p1709
tp1710
Rp1711
sg23
g5
sg24
I772
sg25
g5
sg26
I22
sg27
I891
sg28
g13
(g17
S'\x00\x00\x00\x00\x00\x00\xe0?'
p1712
tp1713
Rp1714
sg32
g5
sg33
I800000
sg34
I1080988
sg35
I188
sg36
I11
sg37
I315068
sg38
I278601
sg39
I875760
sg40
I765920
sg41
g13
(g17
S'{\xd0O\xf9\x89\xfc\xeb?'
p1715
tp1716
Rp1717
ssS'GLISAN JR BEN F'
p1718
(dp1719
g3
I873
sg4
g5
sg6
I125978
sg7
I01
sg8
g5
sg9
S'ben.glisan@enron.com'
p1720
sg11
I71023
sg12
g13
(g17
S'\x1e\xd8GSD\x7f\xae?'
p1721
tp1722
Rp1723
sg23
g5
sg24
I874
sg25
g5
sg26
I16
sg27
I200308
sg28
g13
(g17
S'\x00\x00\x00\x00\x00\x00\xd8?'
p1724
tp1725
Rp1726
sg32
g5
sg33
I600000
sg34
I778546
sg35
I52
sg36
I6
sg37
I393818
sg38
I274975
sg39
I1272284
sg40
I384728
sg41
g13
(g17
S'g8\xdcPbZ\xd3?'
p1727
tp1728
Rp1729
ss.