(dp0
S'METTS MARK'
p1
(dp2
S'to_messages'
p3
I807
sS'deferral_payments'
p4
S'NaN'
p5
sS'expenses'
p6
I94299
sS'poi'
p7
I00
sS'deferred_income'
p8
g5
sS'email_address'
p9
S'mark.metts@enron.com'
p10
sS'long_term_incentive'
p11
g5
sS'perc_email_from_poi'
p12
cnumpy.core.multiarray
scalar
p13
(cnumpy
dtype
p14
(S'f8'
p15
I0
I1
tp16
Rp17
(I3
S'<'
p18
NNNI-1
I-1
I0
tp19
bS'_u\xc2m\xea\x1b\xa8?'
p20
tp21
Rp22
sS'restricted_stock_deferred'
p23
g5
sS'shared_receipt_with_poi'
p24
I702
sS'loan_advances'
p25
g5
sS'from_messages'
p26
I29
sS'other'
p27
I1740
sS'perc_email_to_poi'
p28
g13
(g17
S'\x96{\x1aa\xb9\xa7\xa1?'
p29
tp30
Rp31
sS'director_fees'
p32
g5
sS'bonus'
p33
I600000
sS'total_stock_value'
p34
I585062
sS'from_poi_to_this_person'
p35
I38
sS'from_this_person_to_poi'
p36
I1
sS'restricted_stock'
p37
I585062
sS'salary'
p38
I365788
sS'total_payments'
p39
I1061827
sS'exercised_stock_options'
p40
g5
sS'perc_totalinc_from_exercstock'
p41
g13
(g17
S'\x00\x00\x00\x00\x00\x00\x00\x00'
p42
tp43
Rp44
ssS'BAXTER JOHN C'
p45
(dp46
g3
g5
sg4
I1295738
sg6
I11200
sg7
I00
sg8
I-1386055
sg9
g5
sg11
I1586055
sg12
g13
(g17
S'\x00\x00\x00\x00\x00\x00\x00\x00'
p47
tp48
Rp49
sg23
g5
sg24
g5
sg25
g5
sg26
g5
sg27
I2660303
sg28
g13
(g17
S'\x00\x00\x00\x00\x00\x00\x00\x00'
p50
tp51
Rp52
sg32
g5
sg33
I1200000
sg34
I10623258
sg35
g5
sg36
g5
sg37
I3942714
sg38
I267102
sg39
I5634343
sg40
I6680544
sg41
g13
(g17
S'd\xc0\xe3\x9a\x8e\xf8\xf2?'
p53
tp54
Rp55
ssS'CORDES WILLIAM R'
p56
(dp57
g3
I764
sg4
g5
sg6
g5
sg7
I00
sg8
g5
sg9
S'bill.cordes@enron.com'
p58
sg11
g5
sg12
g13
(g17
S'\x08\x86d\x8bh\xce\x8a?'
p59
tp60
Rp61
sg23
g5
sg24
I58
sg25
g5
sg26
I12
sg27
g5
sg28
g13
(g17
S'\x00\x00\x00\x00\x00\x00\x00\x00'
p62
tp63
Rp64
sg32
g5
sg33
g5
sg34
I1038185
sg35
I10
sg36
I0
sg37
I386335
sg38
g5
sg39
g5
sg40
I651850
sg41
g13
(g17
S'\x00\x00\x00\x00\x00\x00\x00\x00'
p65
tp66
Rp67
ssS'MORDAUNT KRISTINA M'
p68
(dp69
g3
g5
sg4
g5
sg6
I35018
sg7
I00
sg8
g5
sg9
S'kristina.mordaunt@enron.com'
p70
sg11
g5
sg12
g13
(g17
S'\x00\x00\x00\x00\x00\x00\x00\x00'
p71
tp72
Rp73
sg23
g5
sg24
g5
sg25
g5
sg26
g5
sg27
I1411
sg28
g13
(g17
S'\x00\x00\x00\x00\x00\x00\x00\x00'
p74
tp75
Rp76
sg32
g5
sg33
I325000
sg34
I208510
sg35
g5
sg36
g5
sg37
I208510
sg38
I267093
sg39
I628522
sg40
g5
sg41
g13
(g17
S'\x00\x00\x00\x00\x00\x00\x00\x00'
p77
tp78
Rp79
ssS'MEYER ROCKFORD G'
p80
(dp81
g3
I232
sg4
I1848227
sg6
g5
sg7
I00
sg8
g5
sg9
S'rockford.meyer@enron.com'
p82
sg11
g5
sg12
g13
(g17
S'\x00\x00\x00\x00\x00\x00\x00\x00'
p83
tp84
Rp85
sg23
g5
sg24
I22
sg25
g5
sg26
I28
sg27
g5
sg28
g13
(g17
S'\x00\x00\x00\x00\x00\x00\x00\x00'
p86
tp87
Rp88
sg32
g5
sg33
g5
sg34
I955873
sg35
I0
sg36
I0
sg37
I462384
sg38
g5
sg39
I1848227
sg40
I493489
sg41
g13
(g17
S'\\\xd8\xa7I\xa3\x16\xd1?'
p89
tp90
Rp91
ssS'MCMAHON JEFFREY'
p92
(dp93
g3
I2355
sg4
g5
sg6
I137108
sg7
I00
sg8
g5
sg9
S'jeffrey.mcmahon@enron.com'
p94
sg11
I694862
sg12
g13
(g17
S'\x82H\x07O38\x99?'
p95
tp96
Rp97
sg23
g5
sg24
I2228
sg25
g5
sg26
I48
sg27
I297353
sg28
g13
(g17
S'UUUUUU\xe1?'
p98
tp99
Rp100
sg32
g5
sg33
I2600000
sg34
I1662855
sg35
I58
sg36
I26
sg37
I558801
sg38
I370448
sg39
I4099771
sg40
I1104054
sg41
g13
(g17
S"jo\x0eh'<\xd1?"
p101
tp102
Rp103
ssS'HORTON STANLEY C'
p104
(dp105
g3
I2350
sg4
I3131860
sg6
g5
sg7
I00
sg8
g5
sg9
S'stanley.horton@enron.com'
p106
sg11
g5
sg12
g13
(g17
S'\x9f\x18\xc9c:,\x93?'
p107
tp108
Rp109
sg23
g5
sg24
I1074
sg25
g5
sg26
I1073
sg27
g5
sg28
g13
(g17
S'["pJH\xa1\x8c?'
p110
tp111
Rp112
sg32
g5
sg33
g5
sg34
I7256648
sg35
I44
sg36
I15
sg37
I2046079
sg38
g5
sg39
I3131860
sg40
I5210569
sg41
g13
(g17
S'\xc4\xbf\xaf3\xa3\x9e\xfa?'
p113
tp114
Rp115
ssS'PIPER GREGORY F'
p116
(dp117
g3
I1238
sg4
I1130036
sg6
I43057
sg7
I00
sg8
I-33333
sg9
S'greg.piper@enron.com'
p118
sg11
g5
sg12
g13
(g17
S'\xc7\xda\x8d;P:\xa9?'
p119
tp120
Rp121
sg23
I-409554
sg24
I742
sg25
g5
sg26
I222
sg27
I778
sg28
g13
(g17
S'\xd0\xba\xc1\x14\xf9\xac\xcb?'
p122
tp123
Rp124
sg32
g5
sg33
I400000
sg34
I880290
sg35
I61
sg36
I48
sg37
I409554
sg38
I197091
sg39
I1737629
sg40
I880290
sg41
g13
(g17
S'\x87Q\xb4\xd4\x196\xe0?'
p125
tp126
Rp127
ssS'HUMPHREY GENE E'
p128
(dp129
g3
I128
sg4
I2964506
sg6
I4994
sg7
I00
sg8
g5
sg9
S'gene.humphrey@enron.com'
p130
sg11
g5
sg12
g13
(g17
S'\x00\x00\x00\x00\x00\x00\xb4?'
p131
tp132
Rp133
sg23
g5
sg24
I119
sg25
g5
sg26
I17
sg27
g5
sg28
g13
(g17
S'\x00\x00\x00\x00\x00\x00\xf0?'
p134
tp135
Rp136
sg32
g5
sg33
g5
sg34
I2282768
sg35
I10
sg36
I17
sg37
g5
sg38
I130724
sg39
I3100224
sg40
I2282768
sg41
g13
(g17
S'SN\xf3q\xf6\x8f\xe7?'
p137
tp138
Rp139
ssS'UMANOFF ADAM S'
p140
(dp141
g3
I111
sg4
g5
sg6
I53122
sg7
I00
sg8
g5
sg9
S'adam.umanoff@enron.com'
p142
sg11
g5
sg12
g13
(g17
S'\xd0\xba\xc1\x14\xf9\xac\xbb?'
p143
tp144
Rp145
sg23
g5
sg24
I41
sg25
g5
sg26
I18
sg27
g5
sg28
g13
(g17
S'\x00\x00\x00\x00\x00\x00\x00\x00'
p146
tp147
Rp148
sg32
g5
sg33
I788750
sg34
g5
sg35
I12
sg36
I0
sg37
g5
sg38
I288589
sg39
I1130461
sg40
g5
sg41
g13
(g17
S'\x00\x00\x00\x00\x00\x00\x00\x00'
p149
tp150
Rp151
ssS'BLACHMAN JEREMY M'
p152
(dp153
g3
I2475
sg4
g5
sg6
I84208
sg7
I00
sg8
g5
sg9
S'jeremy.blachman@enron.com'
p154
sg11
I831809
sg12
g13
(g17
S'[\xbfR\xa0\xd6\xaf\x84?'
p155
tp156
Rp157
sg23
g5
sg24
I2326
sg25
g5
sg26
I14
sg27
I272
sg28
g13
(g17
S'\x92$I\x92$I\xc2?'
p158
tp159
Rp160
sg32
g5
sg33
I850000
sg34
I954354
sg35
I25
sg36
I2
sg37
I189041
sg38
I248546
sg39
I2014835
sg40
I765313
sg41
g13
(g17
S'\xd2\x9f\xd0kHO\xd8?'
p161
tp162
Rp163
ssS'SUNDE MARTIN'
p164
(dp165
g3
I2647
sg4
g5
sg6
g5
sg7
I00
sg8
g5
sg9
S'marty.sunde@enron.com'
p166
sg11
I476451
sg12
g13
(g17
S'\x8fS`D\x8b\xa0\x8c?'
p167
tp168
Rp169
sg23
g5
sg24
I2565
sg25
g5
sg26
I38
sg27
I111122
sg28
g13
(g17
S'Q^Cy\r\xe5\xd5?'
p170
tp171
Rp172
sg32
g5
sg33
I700000
sg34
I698920
sg35
I37
sg36
I13
sg37
I698920
sg38
I257486
sg39
I1545059
sg40
g5
sg41
g13
(g17
S'\x00\x00\x00\x00\x00\x00\x00\x00'
p173
tp174
Rp175
ssS'GIBBS DANA R'
p176
(dp177
g3
I169
sg4
I504610
sg6
g5
sg7
I00
sg8
g5
sg9
S'dana.gibbs@enron.com'
p178
sg11
I461912
sg12
g13
(g17
S'\x00\x00\x00\x00\x00\x00\x00\x00'
p179
tp180
Rp181
sg23
g5
sg24
I23
sg25
g5
sg26
I12
sg27
g5
sg28
g13
(g17
S'\x00\x00\x00\x00\x00\x00\x00\x00'
p182
tp183
Rp184
sg32
g5
sg33
g5
sg34
I2218275
sg35
I0
sg36
I0
sg37
g5
sg38
g5
sg39
I966522
sg40
I2218275
sg41
g13
(g17
S'\x16\xea\xe2\x01c\\\x02@'
p185
tp186
Rp187
ssS'LOWRY CHARLES P'
p188
(dp189
g3
g5
sg4
g5
sg6
g5
sg7
I00
sg8
g5
sg9
g5
sg11
g5
sg12
g13
(g17
S'\x00\x00\x00\x00\x00\x00\x00\x00'
p190
tp191
Rp192
sg23
I-153686
sg24
g5
sg25
g5
sg26
g5
sg27
g5
sg28
g13
(g17
S'\x00\x00\x00\x00\x00\x00\x00\x00'
p193
tp194
Rp195
sg32
g5
sg33
g5
sg34
I372205
sg35
g5
sg36
g5
sg37
I153686
sg38
g5
sg39
g5
sg40
I372205
sg41
g13
(g17
S'\x00\x00\x00\x00\x00\x00\x00\x00'
p196
tp197
Rp198
ssS'COLWELL WESLEY'
p199
(dp200
g3
I1758
sg4
I27610
sg6
I16514
sg7
I01
sg8
I-144062
sg9
S'wes.colwell@enron.com'
p201
sg11
g5
sg12
g13
(g17
S'w\x18\x14ury\xc1?'
p202
tp203
Rp204
sg23
g5
sg24
I1132
sg25
g5
sg26
I40
sg27
I101740
sg28
g13
(g17
S'\x9a\x99\x99\x99\x99\x99\xd1?'
p205
tp206
Rp207
sg32
g5
sg33
I1200000
sg34
I698242
sg35
I240
sg36
I11
sg37
I698242
sg38
I288542
sg39
I1490344
sg40
g5
sg41
g13
(g17
S'\x00\x00\x00\x00\x00\x00\x00\x00'
p208
tp209
Rp210
ssS'MULLER MARK S'
p211
(dp212
g3
I136
sg4
I842924
sg6
g5
sg7
I00
sg8
I-719000
sg9
S's..muller@enron.com'
p213
sg11
I1725545
sg12
g13
(g17
S'\x97\x96\x96\x96\x96\x96\xb6?'
p214
tp215
Rp216
sg23
g5
sg24
I114
sg25
g5
sg26
I16
sg27
I947
sg28
g13
(g17
S'\x00\x00\x00\x00\x00\x00\x00\x00'
p217
tp218
Rp219
sg32
g5
sg33
I1100000
sg34
I1416848
sg35
I12
sg36
I0
sg37
I360528
sg38
I251654
sg39
I3202070
sg40
I1056320
sg41
g13
(g17
S'\xe9\t\x8a\xb4\xdc\x1c\xd5?'
p220
tp221
Rp222
ssS'JACKSON CHARLENE R'
p223
(dp224
g3
I258
sg4
g5
sg6
I10181
sg7
I00
sg8
g5
sg9
S'charlene.jackson@enron.com'
p225
sg11
g5
sg12
g13
(g17
S'4\xe6\x8c9c\xce\xb8?'
p226
tp227
Rp228
sg23
g5
sg24
I117
sg25
g5
sg26
I56
sg27
I2435
sg28
g13
(g17
S'n\xdb\xb6m\xdb\xb6\xd5?'
p229
tp230
Rp231
sg32
g5
sg33
I250000
sg34
I725735
sg35
I25
sg36
I19
sg37
I540672
sg38
I288558
sg39
I551174
sg40
I185063
sg41
g13
(g17
S'0u\xe7\xbb\x1d}\xd5?'
p232
tp233
Rp234
ssS'WESTFAHL RICHARD K'
p235
(dp236
g3
g5
sg4
g5
sg6
I51870
sg7
I00
sg8
I-10800
sg9
S'dick.westfahl@enron.com'
p237
sg11
I256191
sg12
g13
(g17
S'\x00\x00\x00\x00\x00\x00\x00\x00'
p238
tp239
Rp240
sg23
g5
sg24
g5
sg25
g5
sg26
g5
sg27
I401130
sg28
g13
(g17
S'\x00\x00\x00\x00\x00\x00\x00\x00'
p241
tp242
Rp243
sg32
g5
sg33
g5
sg34
I384930
sg35
g5
sg36
g5
sg37
I384930
sg38
I63744
sg39
I762135
sg40
g5
sg41
g13
(g17
S'\x00\x00\x00\x00\x00\x00\x00\x00'
p244
tp245
Rp246
ssS'WALLS JR ROBERT H'
p247
(dp248
g3
I671
sg4
g5
sg6
I50936
sg7
I00
sg8
g5
sg9
S'rob.walls@enron.com'
p249
sg11
I540751
sg12
g13
(g17
S',\xf4\x80\x92\x80\xf1\x99?'
p250
tp251
Rp252
sg23
g5
sg24
I215
sg25
g5
sg26
I146
sg27
I2
sg28
g13
(g17
S'\x00\x00\x00\x00\x00\x00\x00\x00'
p253
tp254
Rp255
sg32
g5
sg33
I850000
sg34
I5898997
sg35
I17
sg36
I0
sg37
I1552453
sg38
I357091
sg39
I1798780
sg40
I4346544
sg41
g13
(g17
S'\n\xecI]\xc1T\x03@'
p256
tp257
Rp258
ssS'CHAN RONNIE'
p259
(dp260
g3
g5
sg4
g5
sg6
g5
sg7
I00
sg8
I-98784
sg9
g5
sg11
g5
sg12
g13
(g17
S'\x00\x00\x00\x00\x00\x00\x00\x00'
p261
tp262
Rp263
sg23
I-32460
sg24
g5
sg25
g5
sg26
g5
sg27
g5
sg28
g13
(g17
S'\x00\x00\x00\x00\x00\x00\x00\x00'
p264
tp265
Rp266
sg32
I98784
sg33
g5
sg34
g5
sg35
g5
sg36
g5
sg37
I32460
sg38
g5
sg39
g5
sg40
g5
sg41
g13
(g17
S'\x00\x00\x00\x00\x00\x00\x00\x00'
p267
tp268
Rp269
ssS'BELFER ROBERT'
p270
(dp271
g3
g5
sg4
I-102500
sg6
g5
sg7
I00
sg8
g5
sg9
g5
sg11
g5
sg12
g13
(g17
S'\x00\x00\x00\x00\x00\x00\x00\x00'
p272
tp273
Rp274
sg23
I44093
sg24
g5
sg25
g5
sg26
g5
sg27
g5
sg28
g13
(g17
S'\x00\x00\x00\x00\x00\x00\x00\x00'
p275
tp276
Rp277
sg32
I3285
sg33
g5
sg34
I-44093
sg35
g5
sg36
g5
sg37
g5
sg38
g5
sg39
I102500
sg40
I3285
sg41
g13
(g17
S'\x9c\xc3$\xa0\xb2h\xa0?'
p278
tp279
Rp280
ssS'SHANKMAN JEFFREY A'
p281
(dp282
g3
I3221
sg4
g5
sg6
I178979
sg7
I00
sg8
g5
sg9
S'jeffrey.shankman@enron.com'
p283
sg11
I554422
sg12
g13
(g17
S'f[\xfajF\xe2\x9d?'
p284
tp285
Rp286
sg23
g5
sg24
I1730
sg25
g5
sg26
I2681
sg27
I1191
sg28
g13
(g17
S'\xb3\xb1\xd3O\x9c\xb3\x9f?'
p287
tp288
Rp289
sg32
g5
sg33
I2000000
sg34
I2072035
sg35
I94
sg36
I83
sg37
I630137
sg38
I304110
sg39
I3038702
sg40
I1441898
sg41
g13
(g17
S'7\x12\x97\nd^\xde?'
p290
tp291
Rp292
ssS'WODRASKA JOHN'
p293
(dp294
g3
g5
sg4
g5
sg6
g5
sg7
I00
sg8
g5
sg9
S'john.wodraska@enron.com'
p295
sg11
g5
sg12
g13
(g17
S'\x00\x00\x00\x00\x00\x00\x00\x00'
p296
tp297
Rp298
sg23
g5
sg24
g5
sg25
g5
sg26
g5
sg27
I189583
sg28
g13
(g17
S'\x00\x00\x00\x00\x00\x00\x00\x00'
p299
tp300
Rp301
sg32
g5
sg33
g5
sg34
g5
sg35
g5
sg36
g5
sg37
g5
sg38
g5
sg39
I189583
sg40
g5
sg41
g13
(g17
S'\x00\x00\x00\x00\x00\x00\x00\x00'
p302
tp303
Rp304
ssS'BERGSIEKER RICHARD P'
p305
(dp306
g3
I383
sg4
g5
sg6
I59175
sg7
I00
sg8
I-485813
sg9
S'rick.bergsieker@enron.com'
p307
sg11
I180250
sg12
g13
(g17
S'\xe2R|\xba\x97c\x85?'
p308
tp309
Rp310
sg23
g5
sg24
I233
sg25
g5
sg26
I59
sg27
I427316
sg28
g13
(g17
S'\x00\x00\x00\x00\x00\x00\x00\x00'
p311
tp312
Rp313
sg32
g5
sg33
I250000
sg34
I659249
sg35
I4
sg36
I0
sg37
I659249
sg38
I187922
sg39
I618850
sg40
g5
sg41
g13
(g17
S'\x00\x00\x00\x00\x00\x00\x00\x00'
p314
tp315
Rp316
ssS'URQUHART JOHN A'
p317
(dp318
g3
g5
sg4
g5
sg6
I228656
sg7
I00
sg8
I-36666
sg9
g5
sg11
g5
sg12
g13
(g17
S'\x00\x00\x00\x00\x00\x00\x00\x00'
p319
tp320
Rp321
sg23
g5
sg24
g5
sg25
g5
sg26
g5
sg27
g5
sg28
g13
(g17
S'\x00\x00\x00\x00\x00\x00\x00\x00'
p322
tp323
Rp324
sg32
I36666
sg33
g5
sg34
g5
sg35
g5
sg36
g5
sg37
g5
sg38
g5
sg39
I228656
sg40
g5
sg41
g13
(g17
S'\x00\x00\x00\x00\x00\x00\x00\x00'
p325
tp326
Rp327
ssS'BIBI PHILIPPE A'
p328
(dp329
g3
I1607
sg4
g5
sg6
I38559
sg7
I00
sg8
g5
sg9
S'philippe.bibi@enron.com'
p330
sg11
I369721
sg12
g13
(g17
S'\xc6Ef\x92\xcfO\x8d?'
p331
tp332
Rp333
sg23
g5
sg24
I1336
sg25
g5
sg26
I40
sg27
I425688
sg28
g13
(g17
S'\x9a\x99\x99\x99\x99\x99\xc9?'
p334
tp335
Rp336
sg32
g5
sg33
I1000000
sg34
I1843816
sg35
I23
sg36
I8
sg37
I378082
sg38
I213625
sg39
I2047593
sg40
I1465734
sg41
g13
(g17
S'\xc8\x97\xc0\xf3\x19\xe8\xe6?'
p337
tp338
Rp339
ssS'RIEKER PAULA H'
p340
(dp341
g3
I1328
sg4
I214678
sg6
I33271
sg7
I01
sg8
I-100000
sg9
S'paula.rieker@enron.com'
p342
sg11
g5
sg12
g13
(g17
S'\x82\x12\xdeh\xea\xfc\x9a?'
p343
tp344
Rp345
sg23
g5
sg24
I1258
sg25
g5
sg26
I82
sg27
I1950
sg28
g13
(g17
S'\xbb\x12\xb5+Q\xbb\xe2?'
p346
tp347
Rp348
sg32
g5
sg33
I700000
sg34
I1918887
sg35
I35
sg36
I48
sg37
I283649
sg38
I249201
sg39
I1099100
sg40
I1635238
sg41
g13
(g17
S'R\x11\xa0\x87\x04\xce\xf7?'
p349
tp350
Rp351
ssS'WHALEY DAVID A'
p352
(dp353
g3
g5
sg4
g5
sg6
g5
sg7
I00
sg8
g5
sg9
g5
sg11
g5
sg12
g13
(g17
S'\x00\x00\x00\x00\x00\x00\x00\x00'
p354
tp355
Rp356
sg23
g5
sg24
g5
sg25
g5
sg26
g5
sg27
g5
sg28
g13
(g17
S'\x00\x00\x00\x00\x00\x00\x00\x00'
p357
tp358
Rp359
sg32
g5
sg33
g5
sg34
I98718
sg35
g5
sg36
g5
sg37
g5
sg38
g5
sg39
g5
sg40
I98718
sg41
g13
(g17
S'\x00\x00\x00\x00\x00\x00\x00\x00'
p360
tp361
Rp362
ssS'BECK SALLY W'
p363
(dp364
g3
I7315
sg4
g5
sg6
I37172
sg7
I00
sg8
g5
sg9
S'sally.beck@enron.com'
p365
sg11
g5
sg12
g13
(g17
S'A+\xa4\xbft(\x94?'
p366
tp367
Rp368
sg23
g5
sg24
I2639
sg25
g5
sg26
I4343
sg27
I566
sg28
g13
(g17
S']\x92\xdbe\xc0\xc0\xb6?'
p369
tp370
Rp371
sg32
g5
sg33
I700000
sg34
I126027
sg35
I144
sg36
I386
sg37
I126027
sg38
I231330
sg39
I969068
sg40
g5
sg41
g13
(g17
S'\x00\x00\x00\x00\x00\x00\x00\x00'
p372
tp373
Rp374
ssS'HAUG DAVID L'
p375
(dp376
g3
I573
sg4
g5
sg6
I475
sg7
I00
sg8
g5
sg9
S'david.haug@enron.com'
p377
sg11
g5
sg12
g13
(g17
S'M\xe4\x15\xfb\xe6\x97|?'
p378
tp379
Rp380
sg23
g5
sg24
I471
sg25
g5
sg26
I19
sg27
g5
sg28
g13
(g17
S'Cy\r\xe55\x94\xd7?'
p381
tp382
Rp383
sg32
g5
sg33
g5
sg34
I2217299
sg35
I4
sg36
I7
sg37
I2217299
sg38
g5
sg39
I475
sg40
g5
sg41
g13
(g17
S'\x00\x00\x00\x00\x00\x00\x00\x00'
p384
tp385
Rp386
ssS'ECHOLS JOHN B'
p387
(dp388
g3
g5
sg4
g5
sg6
I21530
sg7
I00
sg8
g5
sg9
S'john.echols@enron.com'
p389
sg11
I2234774
sg12
g13
(g17
S'\x00\x00\x00\x00\x00\x00\x00\x00'
p390
tp391
Rp392
sg23
g5
sg24
g5
sg25
g5
sg26
g5
sg27
I53775
sg28
g13
(g17
S'\x00\x00\x00\x00\x00\x00\x00\x00'
p393
tp394
Rp395
sg32
g5
sg33
I200000
sg34
I1008941
sg35
g5
sg36
g5
sg37
I407503
sg38
I182245
sg39
I2692324
sg40
I601438
sg41
g13
(g17
S'u\xef\x0cV\n\x98\xcc?'
p396
tp397
Rp398
ssS'MENDELSOHN JOHN'
p399
(dp400
g3
g5
sg4
g5
sg6
I148
sg7
I00
sg8
I-103750
sg9
g5
sg11
g5
sg12
g13
(g17
S'\x00\x00\x00\x00\x00\x00\x00\x00'
p401
tp402
Rp403
sg23
g5
sg24
g5
sg25
g5
sg26
g5
sg27
g5
sg28
g13
(g17
S'\x00\x00\x00\x00\x00\x00\x00\x00'
p404
tp405
Rp406
sg32
I103750
sg33
g5
sg34
g5
sg35
g5
sg36
g5
sg37
g5
sg38
g5
sg39
I148
sg40
g5
sg41
g13
(g17
S'\x00\x00\x00\x00\x00\x00\x00\x00'
p407
tp408
Rp409
ssS'HICKERSON GARY J'
p410
(dp411
g3
I1320
sg4
g5
sg6
I98849
sg7
I00
sg8
g5
sg9
S'gary.hickerson@enron.com'
p412
sg11
I69223
sg12
g13
(g17
S'\x08\x1f|\xf0\xc1\x07\x9f?'
p413
tp414
Rp415
sg23
g5
sg24
I900
sg25
g5
sg26
I27
sg27
I1936
sg28
g13
(g17
S'h/\xa1\xbd\x84\xf6\xa2?'
p416
tp417
Rp418
sg32
g5
sg33
I1700000
sg34
I441096
sg35
I40
sg36
I1
sg37
I441096
sg38
I211788
sg39
I2081796
sg40
g5
sg41
g13
(g17
S'\x00\x00\x00\x00\x00\x00\x00\x00'
p419
tp420
Rp421
ssS'CLINE KENNETH W'
p422
(dp423
g3
g5
sg4
g5
sg6
g5
sg7
I00
sg8
g5
sg9
g5
sg11
g5
sg12
g13
(g17
S'\x00\x00\x00\x00\x00\x00\x00\x00'
p424
tp425
Rp426
sg23
I-472568
sg24
g5
sg25
g5
sg26
g5
sg27
g5
sg28
g13
(g17
S'\x00\x00\x00\x00\x00\x00\x00\x00'
p427
tp428
Rp429
sg32
g5
sg33
g5
sg34
I189518
sg35
g5
sg36
g5
sg37
I662086
sg38
g5
sg39
g5
sg40
g5
sg41
g13
(g17
S'\x00\x00\x00\x00\x00\x00\x00\x00'
p430
tp431
Rp432
ssS'LEWIS RICHARD'
p433
(dp434
g3
I952
sg4
g5
sg6
g5
sg7
I00
sg8
g5
sg9
S'richard.lewis@enron.com'
p435
sg11
g5
sg12
g13
(g17
S'\x16:\x83\x15:\x83\x85?'
p436
tp437
Rp438
sg23
g5
sg24
I739
sg25
g5
sg26
I26
sg27
g5
sg28
g13
(g17
S'\x00\x00\x00\x00\x00\x00\x00\x00'
p439
tp440
Rp441
sg32
g5
sg33
g5
sg34
I850477
sg35
I10
sg36
I0
sg37
g5
sg38
g5
sg39
g5
sg40
I850477
sg41
g13
(g17
S'\x00\x00\x00\x00\x00\x00\x00\x00'
p442
tp443
Rp444
ssS'HAYES ROBERT E'
p445
(dp446
g3
I504
sg4
I7961
sg6
g5
sg7
I00
sg8
g5
sg9
S'robert.hayes@enron.com'
p447
sg11
g5
sg12
g13
(g17
S'\x10\x04A\x10\x04A\xa0?'
p448
tp449
Rp450
sg23
g5
sg24
I50
sg25
g5
sg26
I12
sg27
g5
sg28
g13
(g17
S'\x00\x00\x00\x00\x00\x00\x00\x00'
p451
tp452
Rp453
sg32
g5
sg33
g5
sg34
I151418
sg35
I16
sg36
I0
sg37
I151418
sg38
g5
sg39
I7961
sg40
g5
sg41
g13
(g17
S'\x00\x00\x00\x00\x00\x00\x00\x00'
p454
tp455
Rp456
ssS'MCCARTY DANNY J'
p457
(dp458
g3
I1433
sg4
g5
sg6
g5
sg7
I00
sg8
g5
sg9
S'danny.mccarty@enron.com'
p459
sg11
g5
sg12
g13
(g17
S'\x15\xc3\x1c\xb7W\xdd\x91?'
p460
tp461
Rp462
sg23
g5
sg24
I508
sg25
g5
sg26
I215
sg27
g5
sg28
g13
(g17
S'\x90\xd10\x01\x19\r\x83?'
p463
tp464
Rp465
sg32
g5
sg33
g5
sg34
I758931
sg35
I25
sg36
I2
sg37
I94556
sg38
g5
sg39
g5
sg40
I664375
sg41
g13
(g17
S'\x00\x00\x00\x00\x00\x00\x00\x00'
p466
tp467
Rp468
ssS'KOPPER MICHAEL J'
p469
(dp470
g3
g5
sg4
g5
sg6
I118134
sg7
I01
sg8
g5
sg9
S'michael.kopper@enron.com'
p471
sg11
I602671
sg12
g13
(g17
S'\x00\x00\x00\x00\x00\x00\x00\x00'
p472
tp473
Rp474
sg23
g5
sg24
g5
sg25
g5
sg26
g5
sg27
I907502
sg28
g13
(g17
S'\x00\x00\x00\x00\x00\x00\x00\x00'
p475
tp476
Rp477
sg32
g5
sg33
I800000
sg34
I985032
sg35
g5
sg36
g5
sg37
I985032
sg38
I224305
sg39
I2652612
sg40
g5
sg41
g13
(g17
S'\x00\x00\x00\x00\x00\x00\x00\x00'
p478
tp479
Rp480
ssS'LEFF DANIEL P'
p481
(dp482
g3
I2822
sg4
g5
sg6
g5
sg7
I00
sg8
g5
sg9
S'dan.leff@enron.com'
p483
sg11
I1387399
sg12
g13
(g17
S'o\x8a\xd7t\xd4O\x98?'
p484
tp485
Rp486
sg23
g5
sg24
I2672
sg25
g5
sg26
I63
sg27
I3083
sg28
g13
(g17
S'\x1c\xc7q\x1c\xc7q\xcc?'
p487
tp488
Rp489
sg32
g5
sg33
I1000000
sg34
I360528
sg35
I67
sg36
I14
sg37
I360528
sg38
I273746
sg39
I2664228
sg40
g5
sg41
g13
(g17
S'\x00\x00\x00\x00\x00\x00\x00\x00'
p490
tp491
Rp492
ssS'BERBERIAN DAVID'
p493
(dp494
g3
g5
sg4
g5
sg6
I11892
sg7
I00
sg8
g5
sg9
S'david.berberian@enron.com'
p495
sg11
g5
sg12
g13
(g17
S'\x00\x00\x00\x00\x00\x00\x00\x00'
p496
tp497
Rp498
sg23
g5
sg24
g5
sg25
g5
sg26
g5
sg27
g5
sg28
g13
(g17
S'\x00\x00\x00\x00\x00\x00\x00\x00'
p499
tp500
Rp501
sg32
g5
sg33
g5
sg34
I2493616
sg35
g5
sg36
g5
sg37
I869220
sg38
I216582
sg39
I228474
sg40
I1624396
sg41
g13
(g17
S'\xf65\xb0\xb8ep\x1c@'
p502
tp503
Rp504
ssS'DETMERING TIMOTHY J'
p505
(dp506
g3
g5
sg4
I875307
sg6
I52255
sg7
I00
sg8
I-775241
sg9
S'timothy.detmering@enron.com'
p507
sg11
I415657
sg12
g13
(g17
S'\x00\x00\x00\x00\x00\x00\x00\x00'
p508
tp509
Rp510
sg23
I-315068
sg24
g5
sg25
g5
sg26
g5
sg27
I1105
sg28
g13
(g17
S'\x00\x00\x00\x00\x00\x00\x00\x00'
p511
tp512
Rp513
sg32
g5
sg33
I425000
sg34
I2027865
sg35
g5
sg36
g5
sg37
I315068
sg38
I210500
sg39
I1204583
sg40
I2027865
sg41
g13
(g17
S'f\xa6\xd7\xc0q\xef\xfa?'
p514
tp515
Rp516
ssS'WAKEHAM JOHN'
p517
(dp518
g3
g5
sg4
g5
sg6
I103773
sg7
I00
sg8
g5
sg9
g5
sg11
g5
sg12
g13
(g17
S'\x00\x00\x00\x00\x00\x00\x00\x00'
p519
tp520
Rp521
sg23
g5
sg24
g5
sg25
g5
sg26
g5
sg27
g5
sg28
g13
(g17
S'\x00\x00\x00\x00\x00\x00\x00\x00'
p522
tp523
Rp524
sg32
I109298
sg33
g5
sg34
g5
sg35
g5
sg36
g5
sg37
g5
sg38
g5
sg39
I213071
sg40
g5
sg41
g13
(g17
S'\x00\x00\x00\x00\x00\x00\x00\x00'
p525
tp526
Rp527
ssS'POWERS WILLIAM'
p528
(dp529
g3
I653
sg4
g5
sg6
g5
sg7
I00
sg8
I-17500
sg9
S'ken.powers@enron.com'
p530
sg11
g5
sg12
g13
(g17
S'\x00\x00\x00\x00\x00\x00\x00\x00'
p531
tp532
Rp533
sg23
g5
sg24
I12
sg25
g5
sg26
I26
sg27
g5
sg28
g13
(g17
S'\x00\x00\x00\x00\x00\x00\x00\x00'
p534
tp535
Rp536
sg32
I17500
sg33
g5
sg34
g5
sg35
I0
sg36
I0
sg37
g5
sg38
g5
sg39
g5
sg40
g5
sg41
g13
(g17
S'\x00\x00\x00\x00\x00\x00\x00\x00'
p537
tp538
Rp539
ssS'GOLD JOSEPH'
p540
(dp541
g3
g5
sg4
g5
sg6
g5
sg7
I00
sg8
g5
sg9
S'joe.gold@enron.com'
p542
sg11
I304805
sg12
g13
(g17
S'\x00\x00\x00\x00\x00\x00\x00\x00'
p543
tp544
Rp545
sg23
g5
sg24
g5
sg25
g5
sg26
g5
sg27
I819288
sg28
g13
(g17
S'\x00\x00\x00\x00\x00\x00\x00\x00'
p546
tp547
Rp548
sg32
g5
sg33
I750000
sg34
I877611
sg35
g5
sg36
g5
sg37
I441096
sg38
I272880
sg39
I2146973
sg40
I436515
sg41
g13
(g17
S"\x7f\xd1'GF\x06\xca?"
p549
tp550
Rp551
ssS'BANNANTINE JAMES M'
p552
(dp553
g3
I566
sg4
g5
sg6
I56301
sg7
I00
sg8
I-5104
sg9
S'james.bannantine@enron.com'
p554
sg11
g5
sg12
g13
(g17
S'\xdd\xe49@\xbb\xa3\xb1?'
p555
tp556
Rp557
sg23
I-560222
sg24
I465
sg25
g5
sg26
I29
sg27
I864523
sg28
g13
(g17
S'\x00\x00\x00\x00\x00\x00\x00\x00'
p558
tp559
Rp560
sg32
g5
sg33
g5
sg34
I5243487
sg35
I39
sg36
I0
sg37
I1757552
sg38
I477
sg39
I916197
sg40
I4046157
sg41
g13
(g17
S'\x80\xf7\n\x03>\xaa\x11@'
p561
tp562
Rp563
ssS'DUNCAN JOHN H'
p564
(dp565
g3
g5
sg4
g5
sg6
g5
sg7
I00
sg8
I-25000
sg9
g5
sg11
g5
sg12
g13
(g17
S'\x00\x00\x00\x00\x00\x00\x00\x00'
p566
tp567
Rp568
sg23
g5
sg24
g5
sg25
g5
sg26
g5
sg27
g5
sg28
g13
(g17
S'\x00\x00\x00\x00\x00\x00\x00\x00'
p569
tp570
Rp571
sg32
I102492
sg33
g5
sg34
I371750
sg35
g5
sg36
g5
sg37
g5
sg38
g5
sg39
I77492
sg40
I371750
sg41
g13
(g17
S'\xe9\xf6ocg0\x13@'
p572
tp573
Rp574
ssS'SHAPIRO RICHARD S'
p575
(dp576
g3
I15149
sg4
g5
sg6
I137767
sg7
I00
sg8
g5
sg9
S'richard.shapiro@enron.com'
p577
sg11
g5
sg12
g13
(g17
S'\xa58\x88o\x18\x02t?'
p578
tp579
Rp580
sg23
g5
sg24
I4527
sg25
g5
sg26
I1215
sg27
I705
sg28
g13
(g17
S'\xb3\xd2\xe8\x11\x15d\xab?'
p581
tp582
Rp583
sg32
g5
sg33
I650000
sg34
I987001
sg35
I74
sg36
I65
sg37
I379164
sg38
I269076
sg39
I1057548
sg40
I607837
sg41
g13
(g17
S'^\xb7\x96~pd\xe2?'
p584
tp585
Rp586
ssS'SHERRIFF JOHN R'
p587
(dp588
g3
I3187
sg4
g5
sg6
g5
sg7
I00
sg8
g5
sg9
S'john.sherriff@enron.com'
p589
sg11
I554422
sg12
g13
(g17
S'\x9cn%\x9a;\xfe\x81?'
p590
tp591
Rp592
sg23
g5
sg24
I2103
sg25
g5
sg26
I92
sg27
I1852186
sg28
g13
(g17
S'\x00\x00\x00\x00\x00\x00\xd0?'
p593
tp594
Rp595
sg32
g5
sg33
I1500000
sg34
I3128982
sg35
I28
sg36
I23
sg37
I1293424
sg38
I428780
sg39
I4335388
sg40
I1835558
sg41
g13
(g17
S'\xd0`\x05\x82\xd0\x18\xdb?'
p596
tp597
Rp598
ssS'SHELBY REX'
p599
(dp600
g3
I225
sg4
g5
sg6
I22884
sg7
I01
sg8
I-4167
sg9
S'rex.shelby@enron.com'
p601
sg11
g5
sg12
g13
(g17
S'\xear\xfb\x83\x0c\x95\xad?'
p602
tp603
Rp604
sg23
g5
sg24
I91
sg25
g5
sg26
I39
sg27
I1573324
sg28
g13
(g17
S'\x97o\xf9\x96o\xf9\xd6?'
p605
tp606
Rp607
sg32
g5
sg33
I200000
sg34
I2493616
sg35
I13
sg36
I14
sg37
I869220
sg38
I211844
sg39
I2003885
sg40
I1624396
sg41
g13
(g17
S')\xf2\xc7h\xa0\xf0\xe9?'
p608
tp609
Rp610
ssS'LEMAISTRE CHARLES'
p611
(dp612
g3
g5
sg4
g5
sg6
g5
sg7
I00
sg8
I-25000
sg9
g5
sg11
g5
sg12
g13
(g17
S'\x00\x00\x00\x00\x00\x00\x00\x00'
p613
tp614
Rp615
sg23
g5
sg24
g5
sg25
g5
sg26
g5
sg27
g5
sg28
g13
(g17
S'\x00\x00\x00\x00\x00\x00\x00\x00'
p616
tp617
Rp618
sg32
I112492
sg33
g5
sg34
I412878
sg35
g5
sg36
g5
sg37
g5
sg38
g5
sg39
I87492
sg40
I412878
sg41
g13
(g17
S'\xca\xc9\x97GK\xe0\x12@'
p619
tp620
Rp621
ssS'DEFFNER JOSEPH M'
p622
(dp623
g3
I714
sg4
g5
sg6
I41626
sg7
I00
sg8
g5
sg9
S'joseph.deffner@enron.com'
p624
sg11
I335349
sg12
g13
(g17
S'U\xc2\x9dT\xc2\x9d\xc4?'
p625
tp626
Rp627
sg23
g5
sg24
I552
sg25
g5
sg26
I74
sg27
I25553
sg28
g13
(g17
S'\xd0\xba\xc1\x14\xf9\xac\xab?'
p628
tp629
Rp630
sg32
g5
sg33
I600000
sg34
I159211
sg35
I115
sg36
I4
sg37
I141833
sg38
I206121
sg39
I1208649
sg40
I17378
sg41
g13
(g17
S'^\xfe^t;r\x8d?'
p631
tp632
Rp633
ssS'KISHKILL JOSEPH G'
p634
(dp635
g3
g5
sg4
g5
sg6
I116335
sg7
I00
sg8
I-51042
sg9
S'joe.kishkill@enron.com'
p636
sg11
g5
sg12
g13
(g17
S'\x00\x00\x00\x00\x00\x00\x00\x00'
p637
tp638
Rp639
sg23
g5
sg24
g5
sg25
g5
sg26
g5
sg27
I465357
sg28
g13
(g17
S'\x00\x00\x00\x00\x00\x00\x00\x00'
p640
tp641
Rp642
sg32
g5
sg33
g5
sg34
I1034346
sg35
g5
sg36
g5
sg37
I1034346
sg38
I174246
sg39
I704896
sg40
g5
sg41
g13
(g17
S'\x00\x00\x00\x00\x00\x00\x00\x00'
p643
tp644
Rp645
ssS'WHALLEY LAWRENCE G'
p646
(dp647
g3
I6019
sg4
g5
sg6
I57838
sg7
I00
sg8
g5
sg9
S'greg.whalley@enron.com'
p648
sg11
I808346
sg12
g13
(g17
S'dD\xe8\xb9\xcf\xa4\x9f?'
p649
tp650
Rp651
sg23
g5
sg24
I3920
sg25
g5
sg26
I556
sg27
I301026
sg28
g13
(g17
S"'!\x8a\xbf\xc8\x19\xa6?"
p652
tp653
Rp654
sg32
g5
sg33
I3000000
sg34
I6079137
sg35
I186
sg36
I24
sg37
I2796177
sg38
I510364
sg39
I4677574
sg40
I3282960
sg41
g13
(g17
S'\xa3\x8e\xaa;\x90u\xe6?'
p655
tp656
Rp657
ssS'MCCONNELL MICHAEL S'
p658
(dp659
g3
I3329
sg4
g5
sg6
I81364
sg7
I00
sg8
g5
sg9
S'mike.mcconnell@enron.com'
p660
sg11
I554422
sg12
g13
(g17
S'z\xcd\x90\xa5\x97L\x9c?'
p661
tp662
Rp663
sg23
g5
sg24
I2189
sg25
g5
sg26
I2742
sg27
I540
sg28
g13
(g17
S'8bvr\xc1\x1c\xb2?'
p664
tp665
Rp666
sg32
g5
sg33
I1100000
sg34
I3101279
sg35
I92
sg36
I194
sg37
I1478269
sg38
I365038
sg39
I2101364
sg40
I1623010
sg41
g13
(g17
S'\xe6\xbd\x94\xd1,\xb7\xe8?'
p667
tp668
Rp669
ssS'PIRO JIM'
p670
(dp671
g3
I58
sg4
g5
sg6
g5
sg7
I00
sg8
g5
sg9
S'jim.piro@enron.com'
p672
sg11
g5
sg12
g13
(g17
S'\x00\x00\x00\x00\x00\x00\x00\x00'
p673
tp674
Rp675
sg23
g5
sg24
I3
sg25
g5
sg26
I16
sg27
g5
sg28
g13
(g17
S'\x00\x00\x00\x00\x00\x00\xb0?'
p676
tp677
Rp678
sg32
g5
sg33
g5
sg34
I47304
sg35
I0
sg36
I1
sg37
I47304
sg38
g5
sg39
g5
sg40
g5
sg41
g13
(g17
S'\x00\x00\x00\x00\x00\x00\x00\x00'
p679
tp680
Rp681
ssS'DELAINEY DAVID W'
p682
(dp683
g3
I3093
sg4
g5
sg6
I86174
sg7
I01
sg8
g5
sg9
S'david.delainey@enron.com'
p684
sg11
I1294981
sg12
g13
(g17
S']\xef\xe4\xea\xc2\xd9\x95?'
p685
tp686
Rp687
sg23
g5
sg24
I2097
sg25
g5
sg26
I3069
sg27
I1661
sg28
g13
(g17
S'f\x99e\x96Yf\xc9?'
p688
tp689
Rp690
sg32
g5
sg33
I3000000
sg34
I3614261
sg35
I66
sg36
I609
sg37
I1323148
sg38
I365163
sg39
I4747979
sg40
I2291113
sg41
g13
(g17
S'\xf4\x17b\xf5\x03\xe2\xde?'
p691
tp692
Rp693
ssS'SULLIVAN-SHAKLOVITZ COLLEEN'
p694
(dp695
g3
g5
sg4
I181993
sg6
g5
sg7
I00
sg8
g5
sg9
g5
sg11
I554422
sg12
g13
(g17
S'\x00\x00\x00\x00\x00\x00\x00\x00'
p696
tp697
Rp698
sg23
g5
sg24
g5
sg25
g5
sg26
g5
sg27
I162
sg28
g13
(g17
S'\x00\x00\x00\x00\x00\x00\x00\x00'
p699
tp700
Rp701
sg32
g5
sg33
I100000
sg34
I1362375
sg35
g5
sg36
g5
sg37
g5
sg38
I162779
sg39
I999356
sg40
I1362375
sg41
g13
(g17
S';v8O\xe2\xcf\xf5?'
p702
tp703
Rp704
ssS'WROBEL BRUCE'
p705
(dp706
g3
g5
sg4
g5
sg6
g5
sg7
I00
sg8
g5
sg9
g5
sg11
g5
sg12
g13
(g17
S'\x00\x00\x00\x00\x00\x00\x00\x00'
p707
tp708
Rp709
sg23
g5
sg24
g5
sg25
g5
sg26
g5
sg27
g5
sg28
g13
(g17
S'\x00\x00\x00\x00\x00\x00\x00\x00'
p710
tp711
Rp712
sg32
g5
sg33
g5
sg34
I139130
sg35
g5
sg36
g5
sg37
g5
sg38
g5
sg39
g5
sg40
I139130
sg41
g13
(g17
S'\x00\x00\x00\x00\x00\x00\x00\x00'
p713
tp714
Rp715
ssS'LINDHOLM TOD A'
p716
(dp717
g3
g5
sg4
I204075
sg6
I57727
sg7
I00
sg8
g5
sg9
S'tod.lindholm@enron.com'
p718
sg11
I175000
sg12
g13
(g17
S'\x00\x00\x00\x00\x00\x00\x00\x00'
p719
tp720
Rp721
sg23
g5
sg24
g5
sg25
g5
sg26
g5
sg27
I2630
sg28
g13
(g17
S'\x00\x00\x00\x00\x00\x00\x00\x00'
p722
tp723
Rp724
sg32
g5
sg33
I200000
sg34
I3064208
sg35
g5
sg36
g5
sg37
I514847
sg38
I236457
sg39
I875889
sg40
I2549361
sg41
g13
(g17
S'\xd2T\xad\xbd\xe7H\x07@'
p725
tp726
Rp727
ssS'MEYER JEROME J'
p728
(dp729
g3
g5
sg4
g5
sg6
I2151
sg7
I00
sg8
I-38346
sg9
g5
sg11
g5
sg12
g13
(g17
S'\x00\x00\x00\x00\x00\x00\x00\x00'
p730
tp731
Rp732
sg23
g5
sg24
g5
sg25
g5
sg26
g5
sg27
g5
sg28
g13
(g17
S'\x00\x00\x00\x00\x00\x00\x00\x00'
p733
tp734
Rp735
sg32
I38346
sg33
g5
sg34
g5
sg35
g5
sg36
g5
sg37
g5
sg38
g5
sg39
I2151
sg40
g5
sg41
g13
(g17
S'\x00\x00\x00\x00\x00\x00\x00\x00'
p736
tp737
Rp738
ssS'LAY KENNETH L'
p739
(dp740
g3
I4273
sg4
I202911
sg6
I99832
sg7
I01
sg8
I-300000
sg9
S'kenneth.lay@enron.com'
p741
sg11
I3600000
sg12
g13
(g17
S'\xf4-QE\xeby\x9d?'
p742
tp743
Rp744
sg23
g5
sg24
I2411
sg25
I81525000
sg26
I36
sg27
I10359729
sg28
g13
(g17
S'\x1c\xc7q\x1c\xc7q\xdc?'
p745
tp746
Rp747
sg32
g5
sg33
I7000000
sg34
I49110078
sg35
I123
sg36
I16
sg37
I14761694
sg38
I1072321
sg39
I103559793
sg40
I34348384
sg41
g13
(g17
S'\xce\xef\xe5u1:\xd5?'
p748
tp749
Rp750
ssS'BUTTS ROBERT H'
p751
(dp752
g3
g5
sg4
g5
sg6
I9410
sg7
I00
sg8
I-75000
sg9
S'bob.butts@enron.com'
p753
sg11
I175000
sg12
g13
(g17
S'\x00\x00\x00\x00\x00\x00\x00\x00'
p754
tp755
Rp756
sg23
g5
sg24
g5
sg25
g5
sg26
g5
sg27
I150656
sg28
g13
(g17
S'\x00\x00\x00\x00\x00\x00\x00\x00'
p757
tp758
Rp759
sg32
g5
sg33
I750000
sg34
I417619
sg35
g5
sg36
g5
sg37
I417619
sg38
I261516
sg39
I1271582
sg40
g5
sg41
g13
(g17
S'\x00\x00\x00\x00\x00\x00\x00\x00'
p760
tp761
Rp762
ssS'OLSON CINDY K'
p763
(dp764
g3
I1184
sg4
I77716
sg6
I63791
sg7
I00
sg8
g5
sg9
S'cindy.olson@enron.com'
p765
sg11
I100000
sg12
g13
(g17
S'\xc2\x14\xf9\xac\x1bL\x91?'
p766
tp767
Rp768
sg23
g5
sg24
I856
sg25
g5
sg26
I52
sg27
I972
sg28
g13
(g17
S"b'vb'v\xd2?"
p769
tp770
Rp771
sg32
g5
sg33
I750000
sg34
I2606763
sg35
I20
sg36
I15
sg37
I969729
sg38
I329078
sg39
I1321557
sg40
I1637034
sg41
g13
(g17
S'\x14\x10\xc6\x06\xc8\xd1\xf3?'
p772
tp773
Rp774
ssS'MCDONALD REBECCA'
p775
(dp776
g3
I894
sg4
g5
sg6
g5
sg7
I00
sg8
g5
sg9
S'rebecca.mcdonald@enron.com'
p777
sg11
g5
sg12
g13
(g17
S'\xfdy\x95\xc5\x19\xed\xae?'
p778
tp779
Rp780
sg23
g5
sg24
I720
sg25
g5
sg26
I13
sg27
g5
sg28
g13
(g17
S'\x14;\xb1\x13;\xb1\xb3?'
p781
tp782
Rp783
sg32
g5
sg33
g5
sg34
I1691366
sg35
I54
sg36
I1
sg37
I934065
sg38
g5
sg39
g5
sg40
I757301
sg41
g13
(g17
S'\x00\x00\x00\x00\x00\x00\x00\x00'
p784
tp785
Rp786
ssS'CUMBERLAND MICHAEL S'
p787
(dp788
g3
g5
sg4
g5
sg6
I22344
sg7
I00
sg8
g5
sg9
g5
sg11
I275000
sg12
g13
(g17
S'\x00\x00\x00\x00\x00\x00\x00\x00'
p789
tp790
Rp791
sg23
g5
sg24
g5
sg25
g5
sg26
g5
sg27
I713
sg28
g13
(g17
S'\x00\x00\x00\x00\x00\x00\x00\x00'
p792
tp793
Rp794
sg32
g5
sg33
I325000
sg34
I207940
sg35
g5
sg36
g5
sg37
I207940
sg38
I184899
sg39
I807956
sg40
g5
sg41
g13
(g17
S'\x00\x00\x00\x00\x00\x00\x00\x00'
p795
tp796
Rp797
ssS'GAHN ROBERT S'
p798
(dp799
g3
g5
sg4
I73122
sg6
I50080
sg7
I00
sg8
I-1042
sg9
g5
sg11
g5
sg12
g13
(g17
S'\x00\x00\x00\x00\x00\x00\x00\x00'
p800
tp801
Rp802
sg23
g5
sg24
g5
sg25
g5
sg26
g5
sg27
I76547
sg28
g13
(g17
S'\x00\x00\x00\x00\x00\x00\x00\x00'
p803
tp804
Rp805
sg32
g5
sg33
I509870
sg34
I318607
sg35
g5
sg36
g5
sg37
I235370
sg38
I192008
sg39
I900585
sg40
I83237
sg41
g13
(g17
S'K\xe6\x9892\xa9\xb7?'
p806
tp807
Rp808
ssS'MCCLELLAN GEORGE'
p809
(dp810
g3
I1744
sg4
g5
sg6
I228763
sg7
I00
sg8
I-125000
sg9
S'george.mcclellan@enron.com'
p811
sg11
g5
sg12
g13
(g17
S'\x84\xe8\xf1]8\x88\x9e?'
p812
tp813
Rp814
sg23
g5
sg24
I1469
sg25
g5
sg26
I49
sg27
I51587
sg28
g13
(g17
S'\x00\x00\x00\x00\x00\x00\x00\x00'
p815
tp816
Rp817
sg32
g5
sg33
I900000
sg34
I947861
sg35
I52
sg36
I0
sg37
I441096
sg38
I263413
sg39
I1318763
sg40
I506765
sg41
g13
(g17
S'\xb6\xa9J\xbc\xed\x97\xd8?'
p818
tp819
Rp820
ssS'HERMANN ROBERT J'
p821
(dp822
g3
g5
sg4
g5
sg6
I48357
sg7
I00
sg8
I-280000
sg9
S'robert.hermann@enron.com'
p823
sg11
I150000
sg12
g13
(g17
S'\x00\x00\x00\x00\x00\x00\x00\x00'
p824
tp825
Rp826
sg23
g5
sg24
g5
sg25
g5
sg26
g5
sg27
I416441
sg28
g13
(g17
S'\x00\x00\x00\x00\x00\x00\x00\x00'
p827
tp828
Rp829
sg32
g5
sg33
I700000
sg34
I668132
sg35
g5
sg36
g5
sg37
I480632
sg38
I262663
sg39
I1297461
sg40
I187500
sg41
g13
(g17
S'\xd1\x1e\x0e\x07g\x7f\xc2?'
p830
tp831
Rp832
ssS'SCRIMSHAW MATTHEW'
p833
(dp834
g3
g5
sg4
g5
sg6
g5
sg7
I00
sg8
g5
sg9
S'matthew.scrimshaw@enron.com'
p835
sg11
g5
sg12
g13
(g17
S'\x00\x00\x00\x00\x00\x00\x00\x00'
p836
tp837
Rp838
sg23
g5
sg24
g5
sg25
g5
sg26
g5
sg27
g5
sg28
g13
(g17
S'\x00\x00\x00\x00\x00\x00\x00\x00'
p839
tp840
Rp841
sg32
g5
sg33
g5
sg34
I759557
sg35
g5
sg36
g5
sg37
g5
sg38
g5
sg39
g5
sg40
I759557
sg41
g13
(g17
S'\x00\x00\x00\x00\x00\x00\x00\x00'
p842
tp843
Rp844
ssS'GATHMANN WILLIAM D'
p845
(dp846
g3
g5
sg4
g5
sg6
g5
sg7
I00
sg8
g5
sg9
g5
sg11
g5
sg12
g13
(g17
S'\x00\x00\x00\x00\x00\x00\x00\x00'
p847
tp848
Rp849
sg23
I-72419
sg24
g5
sg25
g5
sg26
g5
sg27
g5
sg28
g13
(g17
S'\x00\x00\x00\x00\x00\x00\x00\x00'
p850
tp851
Rp852
sg32
g5
sg33
g5
sg34
I1945360
sg35
g5
sg36
g5
sg37
I264013
sg38
g5
sg39
g5
sg40
I1753766
sg41
g13
(g17
S'\x00\x00\x00\x00\x00\x00\x00\x00'
p853
tp854
Rp855
ssS'HAEDICKE MARK E'
p856
(dp857
g3
I4009
sg4
I2157527
sg6
I76169
sg7
I00
sg8
I-934484
sg9
S'mark.haedicke@enron.com'
p858
sg11
I983346
sg12
g13
(g17
S'\\\x8fC\xae\xff\xfc\xa6?'
p859
tp860
Rp861
sg23
I-329825
sg24
I1847
sg25
g5
sg26
I1941
sg27
I52382
sg28
g13
(g17
S'\xf0T\x8cx6\x17\xa0?'
p862
tp863
Rp864
sg32
g5
sg33
I1150000
sg34
I803094
sg35
I180
sg36
I61
sg37
I524169
sg38
I374125
sg39
I3859065
sg40
I608750
sg41
g13
(g17
S'\xc0z\x06\xdd\x001\xc4?'
p865
tp866
Rp867
ssS'BOWEN JR RAYMOND M'
p868
(dp869
g3
I1858
sg4
g5
sg6
I65907
sg7
I01
sg8
I-833
sg9
S'raymond.bowen@enron.com'
p870
sg11
I974293
sg12
g13
(g17
S'BqE\x84 J\xb3?'
p871
tp872
Rp873
sg23
g5
sg24
I1593
sg25
g5
sg26
I27
sg27
I1621
sg28
g13
(g17
S'r\x1c\xc7q\x1c\xc7\xe1?'
p874
tp875
Rp876
sg32
g5
sg33
I1350000
sg34
I252055
sg35
I140
sg36
I15
sg37
I252055
sg38
I278601
sg39
I2669589
sg40
g5
sg41
g13
(g17
S'\x00\x00\x00\x00\x00\x00\x00\x00'
p877
tp878
Rp879
ssS'GILLIS JOHN'
p880
(dp881
g3
g5
sg4
g5
sg6
g5
sg7
I00
sg8
g5
sg9
g5
sg11
g5
sg12
g13
(g17
S'\x00\x00\x00\x00\x00\x00\x00\x00'
p882
tp883
Rp884
sg23
g5
sg24
g5
sg25
g5
sg26
g5
sg27
g5
sg28
g13
(g17
S'\x00\x00\x00\x00\x00\x00\x00\x00'
p885
tp886
Rp887
sg32
g5
sg33
g5
sg34
I85641
sg35
g5
sg36
g5
sg37
I75838
sg38
g5
sg39
g5
sg40
I9803
sg41
g13
(g17
S'\x00\x00\x00\x00\x00\x00\x00\x00'
p888
tp889
Rp890
ssS'FITZGERALD JAY L'
p891
(dp892
g3
I936
sg4
g5
sg6
I23870
sg7
I00
sg8
g5
sg9
S'jay.fitzgerald@enron.com'
p893
sg11
I556416
sg12
g13
(g17
S'\x12\x18\x81\x11\x18\x81Q?'
p894
tp895
Rp896
sg23
g5
sg24
I723
sg25
g5
sg26
I16
sg27
I285414
sg28
g13
(g17
S'\x00\x00\x00\x00\x00\x00\xe0?'
p897
tp898
Rp899
sg32
g5
sg33
I350000
sg34
I1621236
sg35
I1
sg36
I8
sg37
I956775
sg38
I199157
sg39
I1414857
sg40
I664461
sg41
g13
(g17
S'z\xf0R\x0cp\x0e\xde?'
p900
tp901
Rp902
ssS'MORAN MICHAEL P'
p903
(dp904
g3
I672
sg4
g5
sg6
g5
sg7
I00
sg8
g5
sg9
S'michael.moran@enron.com'
p905
sg11
g5
sg12
g13
(g17
S'\x00\x00\x00\x00\x00\x00\x00\x00'
p906
tp907
Rp908
sg23
g5
sg24
I127
sg25
g5
sg26
I19
sg27
g5
sg28
g13
(g17
S'\x00\x00\x00\x00\x00\x00\x00\x00'
p909
tp910
Rp911
sg32
g5
sg33
g5
sg34
I221141
sg35
I0
sg36
I0
sg37
I161602
sg38
g5
sg39
g5
sg40
I59539
sg41
g13
(g17
S'\x00\x00\x00\x00\x00\x00\x00\x00'
p912
tp913
Rp914
ssS'BAZELIDES PHILIP J'
p915
(dp916
g3
g5
sg4
I684694
sg6
g5
sg7
I00
sg8
g5
sg9
g5
sg11
I93750
sg12
g13
(g17
S'\x00\x00\x00\x00\x00\x00\x00\x00'
p917
tp918
Rp919
sg23
g5
sg24
g5
sg25
g5
sg26
g5
sg27
I874
sg28
g13
(g17
S'\x00\x00\x00\x00\x00\x00\x00\x00'
p920
tp921
Rp922
sg32
g5
sg33
g5
sg34
I1599641
sg35
g5
sg36
g5
sg37
g5
sg38
I80818
sg39
I860136
sg40
I1599641
sg41
g13
(g17
S'8\x1d\xa5\xf6\x8c\xc1\xfd?'
p923
tp924
Rp925
ssS'DURAN WILLIAM D'
p926
(dp927
g3
I904
sg4
g5
sg6
I25785
sg7
I00
sg8
g5
sg9
S'w.duran@enron.com'
p928
sg11
I1105218
sg12
g13
(g17
S'\x7fH\xe0\xed\x87\x04\xbe?'
p929
tp930
Rp931
sg23
g5
sg24
I599
sg25
g5
sg26
I12
sg27
I1568
sg28
g13
(g17
S'\x00\x00\x00\x00\x00\x00\xd0?'
p932
tp933
Rp934
sg32
g5
sg33
I750000
sg34
I1640910
sg35
I106
sg36
I3
sg37
I189041
sg38
I210692
sg39
I2093263
sg40
I1451869
sg41
g13
(g17
S'f\xf3e`\xe61\xe6?'
p935
tp936
Rp937
ssS'THORN TERENCE H'
p938
(dp939
g3
I266
sg4
I16586
sg6
I46145
sg7
I00
sg8
g5
sg9
S'terence.thorn@enron.com'
p940
sg11
I200000
sg12
g13
(g17
S'\x00\x00\x00\x00\x00\x00\x00\x00'
p941
tp942
Rp943
sg23
g5
sg24
I73
sg25
g5
sg26
I41
sg27
I426629
sg28
g13
(g17
S'\x00\x00\x00\x00\x00\x00\x00\x00'
p944
tp945
Rp946
sg32
g5
sg33
g5
sg34
I4817796
sg35
I0
sg36
I0
sg37
I365320
sg38
I222093
sg39
I911453
sg40
I4452476
sg41
g13
(g17
S":';\x85E\x8a\x13@"
p947
tp948
Rp949
ssS'FASTOW ANDREW S'
p950
(dp951
g3
g5
sg4
g5
sg6
I55921
sg7
I01
sg8
I-1386055
sg9
S'andrew.fastow@enron.com'
p952
sg11
I1736055
sg12
g13
(g17
S'\x00\x00\x00\x00\x00\x00\x00\x00'
p953
tp954
Rp955
sg23
g5
sg24
g5
sg25
g5
sg26
g5
sg27
I277464
sg28
g13
(g17
S'\x00\x00\x00\x00\x00\x00\x00\x00'
p956
tp957
Rp958
sg32
g5
sg33
I1300000
sg34
I1794412
sg35
g5
sg36
g5
sg37
I1794412
sg38
I440698
sg39
I2424083
sg40
g5
sg41
g13
(g17
S'\x00\x00\x00\x00\x00\x00\x00\x00'
p959
tp960
Rp961
ssS'FOY JOE'
p962
(dp963
g3
I57
sg4
I181755
sg6
g5
sg7
I00
sg8
g5
sg9
S'tracy.foy@enron.com'
p964
sg11
g5
sg12
g13
(g17
S'\x00\x00\x00\x00\x00\x00\x00\x00'
p965
tp966
Rp967
sg23
g5
sg24
I2
sg25
g5
sg26
I13
sg27
g5
sg28
g13
(g17
S'\x00\x00\x00\x00\x00\x00\x00\x00'
p968
tp969
Rp970
sg32
g5
sg33
g5
sg34
I343434
sg35
I0
sg36
I0
sg37
g5
sg38
g5
sg39
I181755
sg40
I343434
sg41
g13
(g17
S'PQM\x16\x92;\xfe?'
p971
tp972
Rp973
ssS'CALGER CHRISTOPHER F'
p974
(dp975
g3
I2598
sg4
g5
sg6
I35818
sg7
I01
sg8
I-262500
sg9
S'christopher.calger@enron.com'
p976
sg11
I375304
sg12
g13
(g17
S'\x97\x1b<\xd5\xe2\x9b\xb3?'
p977
tp978
Rp979
sg23
g5
sg24
I2188
sg25
g5
sg26
I144
sg27
I486
sg28
g13
(g17
S'\x8e\xe38\x8e\xe38\xc6?'
p980
tp981
Rp982
sg32
g5
sg33
I1250000
sg34
I126027
sg35
I199
sg36
I25
sg37
I126027
sg38
I240189
sg39
I1639297
sg40
g5
sg41
g13
(g17
S'\x00\x00\x00\x00\x00\x00\x00\x00'
p983
tp984
Rp985
ssS'KAMINSKI WINCENTY J'
p986
(dp987
g3
I4607
sg4
g5
sg6
I83585
sg7
I00
sg8
g5
sg9
S'vince.kaminski@enron.com'
p988
sg11
I323466
sg12
g13
(g17
S'\x89\xa6\xb5\xc5\xe69\x82?'
p989
tp990
Rp991
sg23
g5
sg24
I583
sg25
g5
sg26
I14368
sg27
I4669
sg28
g13
(g17
S'\xba:\xd9C\xc9_\x88?'
p992
tp993
Rp994
sg32
g5
sg33
I400000
sg34
I976037
sg35
I41
sg36
I171
sg37
I126027
sg38
I275101
sg39
I1086821
sg40
I850010
sg41
g13
(g17
S'\xcb\x13S\xa8\x04\x07\xe9?'
p995
tp996
Rp997
ssS'LOCKHART EUGENE E'
p998
(dp999
g3
g5
sg4
g5
sg6
g5
sg7
I00
sg8
g5
sg9
g5
sg11
g5
sg12
g13
(g17
S'\x00\x00\x00\x00\x00\x00\x00\x00'
p1000
tp1001
Rp1002
sg23
g5
sg24
g5
sg25
g5
sg26
g5
sg27
g5
sg28
g13
(g17
S'\x00\x00\x00\x00\x00\x00\x00\x00'
p1003
tp1004
Rp1005
sg32
g5
sg33
g5
sg34
g5
sg35
g5
sg36
g5
sg37
g5
sg38
g5
sg39
g5
sg40
g5
sg41
g13
(g17
S'\x00\x00\x00\x00\x00\x00\x00\x00'
p1006
tp1007
Rp1008
ssS'COX DAVID'
p1009
(dp1010
g3
I102
sg4
g5
sg6
I27861
sg7
I00
sg8
I-41250
sg9
S'chip.cox@enron.com'
p1011
sg11
g5
sg12
g13
(g17
S'\x00\x00\x00\x00\x00\x00\x00\x00'
p1012
tp1013
Rp1014
sg23
g5
sg24
I71
sg25
g5
sg26
I33
sg27
I494
sg28
g13
(g17
S'\x08\x1f|\xf0\xc1\x07\xbf?'
p1015
tp1016
Rp1017
sg32
g5
sg33
I800000
sg34
I495633
sg35
I0
sg36
I4
sg37
I378082
sg38
I314288
sg39
I1101393
sg40
I117551
sg41
g13
(g17
S'\xe4\\\xb7\xfb\x9dR\xbb?'
p1018
tp1019
Rp1020
ssS'PEREIRA PAULO V. FERRAZ'
p1021
(dp1022
g3
g5
sg4
g5
sg6
I27942
sg7
I00
sg8
I-101250
sg9
g5
sg11
g5
sg12
g13
(g17
S'\x00\x00\x00\x00\x00\x00\x00\x00'
p1023
tp1024
Rp1025
sg23
g5
sg24
g5
sg25
g5
sg26
g5
sg27
g5
sg28
g13
(g17
S'\x00\x00\x00\x00\x00\x00\x00\x00'
p1026
tp1027
Rp1028
sg32
I101250
sg33
g5
sg34
g5
sg35
g5
sg36
g5
sg37
g5
sg38
g5
sg39
I27942
sg40
g5
sg41
g13
(g17
S'\x00\x00\x00\x00\x00\x00\x00\x00'
p1029
tp1030
Rp1031
ssS'STABLER FRANK'
p1032
(dp1033
g3
g5
sg4
g5
sg6
I16514
sg7
I00
sg8
g5
sg9
S'frank.stabler@enron.com'
p1034
sg11
g5
sg12
g13
(g17
S'\x00\x00\x00\x00\x00\x00\x00\x00'
p1035
tp1036
Rp1037
sg23
g5
sg24
g5
sg25
g5
sg26
g5
sg27
I356071
sg28
g13
(g17
S'\x00\x00\x00\x00\x00\x00\x00\x00'
p1038
tp1039
Rp1040
sg32
g5
sg33
I500000
sg34
I511734
sg35
g5
sg36
g5
sg37
I511734
sg38
I239502
sg39
I1112087
sg40
g5
sg41
g13
(g17
S'\x00\x00\x00\x00\x00\x00\x00\x00'
p1041
tp1042
Rp1043
ssS'SKILLING JEFFREY K'
p1044
(dp1045
g3
I3627
sg4
g5
sg6
I29336
sg7
I01
sg8
g5
sg9
S'jeff.skilling@enron.com'
p1046
sg11
I1920000
sg12
g13
(g17
S'\xbet\x9e1C\xd8\x98?'
p1047
tp1048
Rp1049
sg23
g5
sg24
I2042
sg25
g5
sg26
I108
sg27
I22122
sg28
g13
(g17
S'r\x1c\xc7q\x1c\xc7\xd1?'
p1050
tp1051
Rp1052
sg32
g5
sg33
I5600000
sg34
I26093672
sg35
I88
sg36
I30
sg37
I6843672
sg38
I1111258
sg39
I8682716
sg40
I19250000
sg41
g13
(g17
S'\xc2l$\xc6\x83\xbc\x01@'
p1053
tp1054
Rp1055
ssS'BLAKE JR. NORMAN P'
p1056
(dp1057
g3
g5
sg4
g5
sg6
I1279
sg7
I00
sg8
I-113784
sg9
g5
sg11
g5
sg12
g13
(g17
S'\x00\x00\x00\x00\x00\x00\x00\x00'
p1058
tp1059
Rp1060
sg23
g5
sg24
g5
sg25
g5
sg26
g5
sg27
g5
sg28
g13
(g17
S'\x00\x00\x00\x00\x00\x00\x00\x00'
p1061
tp1062
Rp1063
sg32
I113784
sg33
g5
sg34
g5
sg35
g5
sg36
g5
sg37
g5
sg38
g5
sg39
I1279
sg40
g5
sg41
g13
(g17
S'\x00\x00\x00\x00\x00\x00\x00\x00'
p1064
tp1065
Rp1066
ssS'SHERRICK JEFFREY B'
p1067
(dp1068
g3
I613
sg4
g5
sg6
g5
sg7
I00
sg8
g5
sg9
S'jeffrey.sherrick@enron.com'
p1069
sg11
g5
sg12
g13
(g17
S'\xf8\x83t5\x80I\xb0?'
p1070
tp1071
Rp1072
sg23
g5
sg24
I583
sg25
g5
sg26
I25
sg27
g5
sg28
g13
(g17
S'\n\xd7\xa3p=\n\xe7?'
p1073
tp1074
Rp1075
sg32
g5
sg33
g5
sg34
I1832468
sg35
I39
sg36
I18
sg37
I405999
sg38
g5
sg39
g5
sg40
I1426469
sg41
g13
(g17
S'\x00\x00\x00\x00\x00\x00\x00\x00'
p1076
tp1077
Rp1078
ssS'PRENTICE JAMES'
p1079
(dp1080
g3
g5
sg4
I564348
sg6
g5
sg7
I00
sg8
g5
sg9
S'james.prentice@enron.com'
p1081
sg11
g5
sg12
g13
(g17
S'\x00\x00\x00\x00\x00\x00\x00\x00'
p1082
tp1083
Rp1084
sg23
g5
sg24
g5
sg25
g5
sg26
g5
sg27
g5
sg28
g13
(g17
S'\x00\x00\x00\x00\x00\x00\x00\x00'
p1085
tp1086
Rp1087
sg32
g5
sg33
g5
sg34
I1095040
sg35
g5
sg36
g5
sg37
I208809
sg38
g5
sg39
I564348
sg40
I886231
sg41
g13
(g17
S'\xc7\xb7$\x8c4 \xf9?'
p1088
tp1089
Rp1090
ssS'GRAY RODNEY'
p1091
(dp1092
g3
g5
sg4
I93585
sg6
g5
sg7
I00
sg8
g5
sg9
g5
sg11
I365625
sg12
g13
(g17
S'\x00\x00\x00\x00\x00\x00\x00\x00'
p1093
tp1094
Rp1095
sg23
g5
sg24
g5
sg25
g5
sg26
g5
sg27
I680833
sg28
g13
(g17
S'\x00\x00\x00\x00\x00\x00\x00\x00'
p1096
tp1097
Rp1098
sg32
g5
sg33
g5
sg34
g5
sg35
g5
sg36
g5
sg37
g5
sg38
I6615
sg39
I1146658
sg40
g5
sg41
g13
(g17
S'\x00\x00\x00\x00\x00\x00\x00\x00'
p1099
tp1100
Rp1101
ssS'PICKERING MARK R'
p1102
(dp1103
g3
I898
sg4
g5
sg6
I31653
sg7
I00
sg8
g5
sg9
S'mark.pickering@enron.com'
p1104
sg11
g5
sg12
g13
(g17
S'\xa0\xe8hH\xc1\xed\x7f?'
p1105
tp1106
Rp1107
sg23
g5
sg24
I728
sg25
I400000
sg26
I67
sg27
g5
sg28
g13
(g17
S'\x00\x00\x00\x00\x00\x00\x00\x00'
p1108
tp1109
Rp1110
sg32
g5
sg33
I300000
sg34
I28798
sg35
I7
sg36
I0
sg37
g5
sg38
I655037
sg39
I1386690
sg40
I28798
sg41
g13
(g17
S'\x16\x08x=\x0fD\x95?'
p1111
tp1112
Rp1113
ssS'THE TRAVEL AGENCY IN THE PARK'
p1114
(dp1115
g3
g5
sg4
g5
sg6
g5
sg7
I00
sg8
g5
sg9
g5
sg11
g5
sg12
g13
(g17
S'\x00\x00\x00\x00\x00\x00\x00\x00'
p1116
tp1117
Rp1118
sg23
g5
sg24
g5
sg25
g5
sg26
g5
sg27
I362096
sg28
g13
(g17
S'\x00\x00\x00\x00\x00\x00\x00\x00'
p1119
tp1120
Rp1121
sg32
g5
sg33
g5
sg34
g5
sg35
g5
sg36
g5
sg37
g5
sg38
g5
sg39
I362096
sg40
g5
sg41
g13
(g17
S'\x00\x00\x00\x00\x00\x00\x00\x00'
p1122
tp1123
Rp1124
ssS'NOLES JAMES L'
p1125
(dp1126
g3
g5
sg4
I774401
sg6
g5
sg7
I00
sg8
g5
sg9
g5
sg11
g5
sg12
g13
(g17
S'\x00\x00\x00\x00\x00\x00\x00\x00'
p1127
tp1128
Rp1129
sg23
I-94556
sg24
g5
sg25
g5
sg26
g5
sg27
g5
sg28
g13
(g17
S'\x00\x00\x00\x00\x00\x00\x00\x00'
p1130
tp1131
Rp1132
sg32
g5
sg33
g5
sg34
I368705
sg35
g5
sg36
g5
sg37
I463261
sg38
g5
sg39
I774401
sg40
g5
sg41
g13
(g17
S'\x00\x00\x00\x00\x00\x00\x00\x00'
p1133
tp1134
Rp1135
ssS'KEAN STEVEN J'
p1136
(dp1137
g3
I12754
sg4
g5
sg6
I41953
sg7
I00
sg8
g5
sg9
S'steven.kean@enron.com'
p1138
sg11
I300000
sg12
g13
(g17
S'.\xc2c\x13\x15{\x86?'
p1139
tp1140
Rp1141
sg23
g5
sg24
I3639
sg25
g5
sg26
I6759
sg27
I1231
sg28
g13
(g17
S'\xc4@\xde\xcc\xc9P\xad?'
p1142
tp1143
Rp1144
sg32
g5
sg33
I1000000
sg34
I6153642
sg35
I140
sg36
I387
sg37
I4131594
sg38
I404338
sg39
I1747522
sg40
I2022048
sg41
g13
(g17
S'^\r-wu\x83\xf2?'
p1145
tp1146
Rp1147
ssS'TOTAL'
p1148
(dp1149
g3
g5
sg4
I32083396
sg6
I5235198
sg7
I00
sg8
I-27992891
sg9
g5
sg11
I48521928
sg12
g13
(g17
S'\x00\x00\x00\x00\x00\x00\x00\x00'
p1150
tp1151
Rp1152
sg23
I-7576788
sg24
g5
sg25
I83925000
sg26
g5
sg27
I42667589
sg28
g13
(g17
S'\x00\x00\x00\x00\x00\x00\x00\x00'
p1153
tp1154
Rp1155
sg32
I1398517
sg33
I97343619
sg34
I434509511
sg35
g5
sg36
g5
sg37
I130322299
sg38
I26704229
sg39
I309886585
sg40
I311764000
sg41
g13
(g17
S'\xb6\x7f\xbb\xaf\xd0\x18\xf0?'
p1156
tp1157
Rp1158
ssS'FOWLER PEGGY'
p1159
(dp1160
g3
I517
sg4
g5
sg6
g5
sg7
I00
sg8
g5
sg9
S'kulvinder.fowler@enron.com'
p1161
sg11
g5
sg12
g13
(g17
S'\x00\x00\x00\x00\x00\x00\x00\x00'
p1162
tp1163
Rp1164
sg23
g5
sg24
I10
sg25
g5
sg26
I36
sg27
g5
sg28
g13
(g17
S'\x00\x00\x00\x00\x00\x00\x00\x00'
p1165
tp1166
Rp1167
sg32
g5
sg33
g5
sg34
I1884748
sg35
I0
sg36
I0
sg37
I560170
sg38
g5
sg39
g5
sg40
I1324578
sg41
g13
(g17
S'\x00\x00\x00\x00\x00\x00\x00\x00'
p1168
tp1169
Rp1170
ssS'WASAFF GEORGE'
p1171
(dp1172
g3
I400
sg4
I831299
sg6
g5
sg7
I00
sg8
I-583325
sg9
S'george.wasaff@enron.com'
p1173
sg11
I200000
sg12
g13
(g17
S')\\\x8f\xc2\xf5(\xac?'
p1174
tp1175
Rp1176
sg23
g5
sg24
I337
sg25
g5
sg26
I30
sg27
I1425
sg28
g13
(g17
S'\xde\xdd\xdd\xdd\xdd\xdd\xcd?'
p1177
tp1178
Rp1179
sg32
g5
sg33
I325000
sg34
I2056427
sg35
I22
sg36
I7
sg37
I388167
sg38
I259996
sg39
I1034395
sg40
I1668260
sg41
g13
(g17
S'\xaa\t\xe3\xf2\xfa\xcd\xf9?'
p1180
tp1181
Rp1182
ssS'WHITE JR THOMAS E'
p1183
(dp1184
g3
g5
sg4
g5
sg6
I81353
sg7
I00
sg8
g5
sg9
S'thomas.white@enron.com'
p1185
sg11
g5
sg12
g13
(g17
S'\x00\x00\x00\x00\x00\x00\x00\x00'
p1186
tp1187
Rp1188
sg23
g5
sg24
g5
sg25
g5
sg26
g5
sg27
I1085463
sg28
g13
(g17
S'\x00\x00\x00\x00\x00\x00\x00\x00'
p1189
tp1190
Rp1191
sg32
g5
sg33
I450000
sg34
I15144123
sg35
g5
sg36
g5
sg37
I13847074
sg38
I317543
sg39
I1934359
sg40
I1297049
sg41
g13
(g17
S'h\x06X\xdd\xfet\xe5?'
p1192
tp1193
Rp1194
ssS'CHRISTODOULOU DIOMEDES'
p1195
(dp1196
g3
g5
sg4
g5
sg6
g5
sg7
I00
sg8
g5
sg9
S'diomedes.christodoulou@enron.com'
p1197
sg11
g5
sg12
g13
(g17
S'\x00\x00\x00\x00\x00\x00\x00\x00'
p1198
tp1199
Rp1200
sg23
g5
sg24
g5
sg25
g5
sg26
g5
sg27
g5
sg28
g13
(g17
S'\x00\x00\x00\x00\x00\x00\x00\x00'
p1201
tp1202
Rp1203
sg32
g5
sg33
g5
sg34
I6077885
sg35
g5
sg36
g5
sg37
I950730
sg38
g5
sg39
g5
sg40
I5127155
sg41
g13
(g17
S'\x00\x00\x00\x00\x00\x00\x00\x00'
p1204
tp1205
Rp1206
ssS'ALLEN PHILLIP K'
p1207
(dp1208
g3
I2902
sg4
I2869717
sg6
I13868
sg7
I00
sg8
I-3081055
sg9
S'phillip.allen@enron.com'
p1209
sg11
I304805
sg12
g13
(g17
S'\x1f\xf6\xa7\xd8\x9c\x95\x90?'
p1210
tp1211
Rp1212
sg23
I-126027
sg24
I1407
sg25
g5
sg26
I2195
sg27
I152
sg28
g13
(g17
S'\xa9\x19\xccn\xceR\x9e?'
p1213
tp1214
Rp1215
sg32
g5
sg33
I4175000
sg34
I1729541
sg35
I47
sg36
I65
sg37
I126027
sg38
I201955
sg39
I4484442
sg40
I1729541
sg41
g13
(g17
S'\xab\x0fi\xc7\xe9\xae\xd8?'
p1216
tp1217
Rp1218
ssS'SHARP VICTORIA T'
p1219
(dp1220
g3
I3136
sg4
I187469
sg6
I116337
sg7
I00
sg8
g5
sg9
S'vicki.sharp@enron.com'
p1221
sg11
I422158
sg12
g13
(g17
S'\xd6\x87\xc6\xfa\xd0X\x7f?'
p1222
tp1223
Rp1224
sg23
g5
sg24
I2477
sg25
g5
sg26
I136
sg27
I2401
sg28
g13
(g17
S'\x97\x96\x96\x96\x96\x96\xa6?'
p1225
tp1226
Rp1227
sg32
g5
sg33
I600000
sg34
I494136
sg35
I24
sg36
I6
sg37
I213063
sg38
I248146
sg39
I1576511
sg40
I281073
sg41
g13
(g17
S'\x8c\xe5\xf0-$\xd2\xc6?'
p1228
tp1229
Rp1230
ssS'JAEDICKE ROBERT'
p1231
(dp1232
g3
g5
sg4
g5
sg6
g5
sg7
I00
sg8
I-25000
sg9
g5
sg11
g5
sg12
g13
(g17
S'\x00\x00\x00\x00\x00\x00\x00\x00'
p1233
tp1234
Rp1235
sg23
I-44093
sg24
g5
sg25
g5
sg26
g5
sg27
g5
sg28
g13
(g17
S'\x00\x00\x00\x00\x00\x00\x00\x00'
p1236
tp1237
Rp1238
sg32
I108750
sg33
g5
sg34
I431750
sg35
g5
sg36
g5
sg37
I44093
sg38
g5
sg39
I83750
sg40
I431750
sg41
g13
(g17
S'\xba\xe3J\x02\xf3\x9e\x14@'
p1239
tp1240
Rp1241
ssS'WINOKUR JR. HERBERT S'
p1242
(dp1243
g3
g5
sg4
g5
sg6
I1413
sg7
I00
sg8
I-25000
sg9
g5
sg11
g5
sg12
g13
(g17
S'\x00\x00\x00\x00\x00\x00\x00\x00'
p1244
tp1245
Rp1246
sg23
g5
sg24
g5
sg25
g5
sg26
g5
sg27
g5
sg28
g13
(g17
S'\x00\x00\x00\x00\x00\x00\x00\x00'
p1247
tp1248
Rp1249
sg32
I108579
sg33
g5
sg34
g5
sg35
g5
sg36
g5
sg37
g5
sg38
g5
sg39
I84992
sg40
g5
sg41
g13
(g17
S'\x00\x00\x00\x00\x00\x00\x00\x00'
p1250
tp1251
Rp1252
ssS'BROWN MICHAEL'
p1253
(dp1254
g3
I1486
sg4
g5
sg6
I49288
sg7
I00
sg8
g5
sg9
S'michael.brown@enron.com'
p1255
sg11
g5
sg12
g13
(g17
S'K\x13\xf8P\xa3\xea\x81?'
p1256
tp1257
Rp1258
sg23
g5
sg24
I761
sg25
g5
sg26
I41
sg27
g5
sg28
g13
(g17
S'\xfa\x18\x9c\x8f\xc1\xf9\x98?'
p1259
tp1260
Rp1261
sg32
g5
sg33
g5
sg34
g5
sg35
I13
sg36
I1
sg37
g5
sg38
g5
sg39
I49288
sg40
g5
sg41
g13
(g17
S'\x00\x00\x00\x00\x00\x00\x00\x00'
p1262
tp1263
Rp1264
ssS'BADUM JAMES P'
p1265
(dp1266
g3
g5
sg4
I178980
sg6
I3486
sg7
I00
sg8
g5
sg9
g5
sg11
g5
sg12
g13
(g17
S'\x00\x00\x00\x00\x00\x00\x00\x00'
p1267
tp1268
Rp1269
sg23
g5
sg24
g5
sg25
g5
sg26
g5
sg27
g5
sg28
g13
(g17
S'\x00\x00\x00\x00\x00\x00\x00\x00'
p1270
tp1271
Rp1272
sg32
g5
sg33
g5
sg34
I257817
sg35
g5
sg36
g5
sg37
g5
sg38
g5
sg39
I182466
sg40
I257817
sg41
g13
(g17
S']~w\x07{\x9b\xf6?'
p1273
tp1274
Rp1275
ssS'HUGHES JAMES A'
p1276
(dp1277
g3
I719
sg4
g5
sg6
g5
sg7
I00
sg8
g5
sg9
S'james.hughes@enron.com'
p1278
sg11
g5
sg12
g13
(g17
S'\r5\xa5\xd0j\xec\xa8?'
p1279
tp1280
Rp1281
sg23
g5
sg24
I589
sg25
g5
sg26
I34
sg27
g5
sg28
g13
(g17
S'\xd3\xd2\xd2\xd2\xd2\xd2\xc2?'
p1282
tp1283
Rp1284
sg32
g5
sg33
g5
sg34
I1118394
sg35
I35
sg36
I5
sg37
I363428
sg38
g5
sg39
g5
sg40
I754966
sg41
g13
(g17
S'\x00\x00\x00\x00\x00\x00\x00\x00'
p1285
tp1286
Rp1287
ssS'DIMICHELE RICHARD G'
p1288
(dp1289
g3
g5
sg4
g5
sg6
I35812
sg7
I00
sg8
g5
sg9
S'richard.dimichele@enron.com'
p1290
sg11
I694862
sg12
g13
(g17
S'\x00\x00\x00\x00\x00\x00\x00\x00'
p1291
tp1292
Rp1293
sg23
g5
sg24
g5
sg25
g5
sg26
g5
sg27
I374689
sg28
g13
(g17
S'\x00\x00\x00\x00\x00\x00\x00\x00'
p1294
tp1295
Rp1296
sg32
g5
sg33
I1000000
sg34
I8317782
sg35
g5
sg36
g5
sg37
I126027
sg38
I262788
sg39
I2368151
sg40
I8191755
sg41
g13
(g17
S'\xf2\x85\xb00O\xac\x0b@'
p1297
tp1298
Rp1299
ssS'BHATNAGAR SANJAY'
p1300
(dp1301
g3
I523
sg4
g5
sg6
g5
sg7
I00
sg8
g5
sg9
S'sanjay.bhatnagar@enron.com'
p1302
sg11
g5
sg12
g13
(g17
S'\x00\x00\x00\x00\x00\x00\x00\x00'
p1303
tp1304
Rp1305
sg23
I15456290
sg24
I463
sg25
g5
sg26
I29
sg27
I137864
sg28
g13
(g17
S'\x96{\x1aa\xb9\xa7\xa1?'
p1306
tp1307
Rp1308
sg32
I137864
sg33
g5
sS'total_stock_value'
p1309
S'NaN'
p1310
sg35
I0
sg36
I1
sg37
I-2604490
sg38
g5
sg39
I15456290
sg40
I2604490
sg41
g13
(g17
S'#\xf6\r\x82\xa1\x91\xc5?'
p1311
tp1312
Rp1313
ssS'CARTER REBECCA C'
p1314
(dp1315
g3
I312
sg4
g5
sg6
g5
sg7
I00
sg8
I-159792
sg9
S'rebecca.carter@enron.com'
p1316
sg11
I75000
sg12
g13
(g17
S'\xb8|\xcb\xb7|\xcb\xb7?'
p1317
tp1318
Rp1319
sg23
I-307301
sg24
I196
sg25
g5
sg26
I15
sg27
I540
sg28
g13
(g17
S'\xde\xdd\xdd\xdd\xdd\xdd\xdd?'
p1320
tp1321
Rp1322
sg32
g5
sg33
I300000
sg34
g5
sg35
I29
sg36
I7
sg37
I307301
sg38
I261809
sg39
I477557
sg40
g5
sg41
g13
(g17
S'\x00\x00\x00\x00\x00\x00\x00\x00'
p1323
tp1324
Rp1325
ssS'BUCHANAN HAROLD G'
p1326
(dp1327
g3
I1088
sg4
g5
sg6
I600
sg7
I00
sg8
g5
sg9
S'john.buchanan@enron.com'
p1328
sg11
I304805
sg12
g13
(g17
S'\x00\x00\x00\x00\x00\x00\x00\x00'
p1329
tp1330
Rp1331
sg23
g5
sg24
I23
sg25
g5
sg26
I125
sg27
I1215
sg28
g13
(g17
S'\x00\x00\x00\x00\x00\x00\x00\x00'
p1332
tp1333
Rp1334
sg32
g5
sg33
I500000
sg34
I1014505
sg35
I0
sg36
I0
sg37
I189041
sg38
I248017
sg39
I1054637
sg40
I825464
sg41
g13
(g17
S'\x00sn\x1d\xe0\x0b\xe9?'
p1335
tp1336
Rp1337
ssS'YEAP SOON'
p1338
(dp1339
g3
g5
sg4
g5
sg6
I55097
sg7
I00
sg8
g5
sg9
g5
sg11
g5
sg12
g13
(g17
S'\x00\x00\x00\x00\x00\x00\x00\x00'
p1340
tp1341
Rp1342
sg23
g5
sg24
g5
sg25
g5
sg26
g5
sg27
g5
sg28
g13
(g17
S'\x00\x00\x00\x00\x00\x00\x00\x00'
p1343
tp1344
Rp1345
sg32
g5
sg33
g5
sg34
I192758
sg35
g5
sg36
g5
sg37
g5
sg38
g5
sg39
I55097
sg40
I192758
sg41
g13
(g17
S'\x0e8\xe0w\xf8\xfc\x0b@'
p1346
tp1347
Rp1348
ssS'MURRAY JULIA H'
p1349
(dp1350
g3
I2192
sg4
g5
sg6
I57580
sg7
I00
sg8
g5
sg9
S'julia.murray@enron.com'
p1351
sg11
I125000
sg12
g13
(g17
S'\x7f\xdc\xba\xbc\x03\x8et?'
p1352
tp1353
Rp1354
sg23
g5
sg24
I395
sg25
g5
sg26
I45
sg27
I330
sg28
g13
(g17
S'\x17l\xc1\x16l\xc1\xa6?'
p1355
tp1356
Rp1357
sg32
g5
sg33
I400000
sg34
I597461
sg35
I11
sg36
I2
sg37
I196983
sg38
I229284
sg39
I812194
sg40
I400478
sg41
g13
(g17
S'\x8c\xb9@\x8e\xa6\x8e\xdf?'
p1358
tp1359
Rp1360
ssS'GARLAND C KEVIN'
p1361
(dp1362
g3
I209
sg4
g5
sg6
I48405
sg7
I00
sg8
g5
sg9
S'kevin.garland@enron.com'
p1363
sg11
I375304
sg12
g13
(g17
S'<\x9f\x1e7c\x7f\xa8?'
p1364
tp1365
Rp1366
sg23
g5
sg24
I178
sg25
g5
sg26
I44
sg27
I60814
sg28
g13
(g17
S'\xa3\x8b.\xba\xe8\xa2\xe3?'
p1367
tp1368
Rp1369
sg32
g5
sg33
I850000
sg34
I896153
sg35
I10
sg36
I27
sg37
I259907
sg38
I231946
sg39
I1566469
sg40
I636246
sg41
g13
(g17
S'\x13"\xb4z\x9e\xfe\xd9?'
p1370
tp1371
Rp1372
ssS'DODSON KEITH'
p1373
(dp1374
g3
I176
sg4
g5
sg6
I28164
sg7
I00
sg8
g5
sg9
S'keith.dodson@enron.com'
p1375
sg11
g5
sg12
g13
(g17
S'\x17]t\xd1E\x17\xad?'
p1376
tp1377
Rp1378
sg23
g5
sg24
I114
sg25
g5
sg26
I14
sg27
I774
sg28
g13
(g17
S'\xdb\xb6m\xdb\xb6m\xcb?'
p1379
tp1380
Rp1381
sg32
g5
sg33
I70000
sg34
g5
sg35
I10
sg36
I3
sg37
g5
sg38
I221003
sg39
I319941
sg40
g5
sg41
g13
(g17
S'\x00\x00\x00\x00\x00\x00\x00\x00'
p1382
tp1383
Rp1384
ssS'FREVERT MARK A'
p1385
(dp1386
g3
I3275
sg4
I6426990
sg6
I86987
sg7
I00
sg8
I-3367011
sg9
S'mark.frevert@enron.com'
p1387
sg11
I1617011
sg12
g13
(g17
S'\x8f\xf7\xc3\xff\xa8\xea\xb2?'
p1388
tp1389
Rp1390
sg23
g5
sg24
I2979
sg25
I2000000
sg26
I21
sg27
I7427621
sg28
g13
(g17
S'\x92$I\x92$I\xd2?'
p1391
tp1392
Rp1393
sg32
g5
sg33
I2000000
sg34
I14622185
sg35
I242
sg36
I6
sg37
I4188667
sg38
I1060932
sg39
I17252530
sg40
I10433518
sg41
g13
(g17
S'7K\xf7\xce"Z\xe3?'
p1394
tp1395
Rp1396
ssS'PAI LOU L'
p1397
(dp1398
g3
g5
sg4
g5
sg6
I32047
sg7
I00
sg8
g5
sg9
S'lou.pai@enron.com'
p1399
sg11
g5
sg12
g13
(g17
S'\x00\x00\x00\x00\x00\x00\x00\x00'
p1400
tp1401
Rp1402
sg23
g5
sg24
g5
sg25
g5
sg26
g5
sg27
I1829457
sg28
g13
(g17
S'\x00\x00\x00\x00\x00\x00\x00\x00'
p1403
tp1404
Rp1405
sg32
g5
sg33
I1000000
sg34
I23817930
sg35
g5
sg36
g5
sg37
I8453763
sg38
I261879
sg39
I3123383
sg40
I15364167
sg41
g13
(g17
S'$\x0e\x0e\xfc"\xad\x13@'
p1406
tp1407
Rp1408
ssS'BAY FRANKLIN R'
p1409
(dp1410
g3
g5
sg4
I260455
sg6
I129142
sg7
I00
sg8
I-201641
sg9
S'frank.bay@enron.com'
p1411
sg11
g5
sg12
g13
(g17
S'\x00\x00\x00\x00\x00\x00\x00\x00'
p1412
tp1413
Rp1414
sg23
I-82782
sg24
g5
sg25
g5
sg26
g5
sg27
I69
sg28
g13
(g17
S'\x00\x00\x00\x00\x00\x00\x00\x00'
p1415
tp1416
Rp1417
sg32
g5
sg33
I400000
sg34
I63014
sg35
g5
sg36
g5
sg37
I145796
sg38
I239671
sg39
I827696
sg40
g5
sg41
g13
(g17
S'\x00\x00\x00\x00\x00\x00\x00\x00'
p1418
tp1419
Rp1420
ssS'HAYSLETT RODERICK J'
p1421
(dp1422
g3
I2649
sg4
g5
sg6
g5
sg7
I00
sg8
g5
sg9
S'rod.hayslett@enron.com'
p1423
sg11
g5
sg12
g13
(g17
S'\xe3\x98"*,\x0f\x8b?'
p1424
tp1425
Rp1426
sg23
g5
sg24
I571
sg25
g5
sg26
I1061
sg27
g5
sg28
g13
(g17
S'\xc7(\xcb\xfe`V\xa2?'
p1427
tp1428
Rp1429
sg32
g5
sg33
g5
sg34
I346663
sg35
I35
sg36
I38
sg37
I346663
sg38
g5
sg39
g5
sg40
g5
sg41
g13
(g17
S'\x00\x00\x00\x00\x00\x00\x00\x00'
p1430
tp1431
Rp1432
ssS'FUGH JOHN L'
p1433
(dp1434
g3
g5
sg4
I50591
sg6
g5
sg7
I00
sg8
g5
sg9
g5
sg11
g5
sg12
g13
(g17
S'\x00\x00\x00\x00\x00\x00\x00\x00'
p1435
tp1436
Rp1437
sg23
g5
sg24
g5
sg25
g5
sg26
g5
sg27
g5
sg28
g13
(g17
S'\x00\x00\x00\x00\x00\x00\x00\x00'
p1438
tp1439
Rp1440
sg32
g5
sg33
g5
sg34
I176378
sg35
g5
sg36
g5
sg37
g5
sg38
g5
sg39
I50591
sg40
I176378
sg41
g13
(g17
S'|W)*\x0c\xe4\x0b@'
p1441
tp1442
Rp1443
ssS'FALLON JAMES B'
p1444
(dp1445
g3
I1755
sg4
g5
sg6
I95924
sg7
I00
sg8
g5
sg9
S'jim.fallon@enron.com'
p1446
sg11
I374347
sg12
g13
(g17
S'\x19\x88\x81\x18\x88\x81\x98?'
p1447
tp1448
Rp1449
sg23
g5
sg24
I1604
sg25
g5
sg26
I75
sg27
I401481
sg28
g13
(g17
S'\x93_,\xf9\xc5\x92\xdf?'
p1450
tp1451
Rp1452
sg32
g5
sg33
I2500000
sg34
I2332399
sg35
I42
sg36
I37
sg37
I1392142
sg38
I304588
sg39
I3676340
sg40
I940257
sg41
g13
(g17
S'\x9fI\xe1\xf2Z^\xd0?'
p1453
tp1454
Rp1455
ssS'KOENIG MARK E'
p1456
(dp1457
g3
I2374
sg4
g5
sg6
I127017
sg7
I01
sg8
g5
sg9
S'mark.koenig@enron.com'
p1458
sg11
I300000
sg12
g13
(g17
S'N}\t\x1cj\xdc\x96?'
p1459
tp1460
Rp1461
sg23
g5
sg24
I2271
sg25
g5
sg26
I61
sg27
I150458
sg28
g13
(g17
S'.\x19\x82u\xb4y\xcf?'
p1462
tp1463
Rp1464
sg32
g5
sg33
I700000
sg34
I1920055
sg35
I53
sg36
I15
sg37
I1248318
sg38
I309946
sg39
I1587421
sg40
I671737
sg41
g13
(g17
S'\x8b\x19G\x10\x18\x15\xdb?'
p1465
tp1466
Rp1467
ssS'SAVAGE FRANK'
p1468
(dp1469
g3
g5
sg4
g5
sg6
g5
sg7
I00
sg8
I-121284
sg9
g5
sg11
g5
sg12
g13
(g17
S'\x00\x00\x00\x00\x00\x00\x00\x00'
p1470
tp1471
Rp1472
sg23
g5
sg24
g5
sg25
g5
sg26
g5
sg27
g5
sg28
g13
(g17
S'\x00\x00\x00\x00\x00\x00\x00\x00'
p1473
tp1474
Rp1475
sg32
I125034
sg33
g5
sg34
g5
sg35
g5
sg36
g5
sg37
g5
sg38
g5
sg39
I3750
sg40
g5
sg41
g13
(g17
S'\x00\x00\x00\x00\x00\x00\x00\x00'
p1476
tp1477
Rp1478
ssS'IZZO LAWRENCE L'
p1479
(dp1480
g3
I496
sg4
g5
sg6
I28093
sg7
I00
sg8
g5
sg9
S'larry.izzo@enron.com'
p1481
sg11
I312500
sg12
g13
(g17
S'\xe7\x9cs\xce9\xe7\xac?'
p1482
tp1483
Rp1484
sg23
g5
sg24
I437
sg25
g5
sg26
I19
sg27
I1553729
sg28
g13
(g17
S'y\r\xe55\x94\xd7\xd0?'
p1485
tp1486
Rp1487
sg32
g5
sg33
g5
sg34
I5819980
sg35
I28
sg36
I5
sg37
I3654808
sg38
I85274
sg39
I1979596
sg40
I2165172
sg41
g13
(g17
S'\xcb\xfao\x1b\xfa\x7f\xf1?'
p1488
tp1489
Rp1490
ssS'TILNEY ELIZABETH A'
p1491
(dp1492
g3
I460
sg4
g5
sg6
g5
sg7
I00
sg8
I-575000
sg9
S'elizabeth.tilney@enron.com'
p1493
sg11
I275000
sg12
g13
(g17
S'd!\x0bY\xc8B\x96?'
p1494
tp1495
Rp1496
sg23
g5
sg24
I379
sg25
g5
sg26
I19
sg27
I152055
sg28
g13
(g17
S'l(\xaf\xa1\xbc\x86\xe2?'
p1497
tp1498
Rp1499
sg32
g5
sg33
I300000
sg34
I1168042
sg35
I10
sg36
I11
sg37
I576792
sg38
I247338
sg39
I399393
sg40
I591250
sg41
g13
(g17
S'A\x1b\xe8\xfc\x99\xaf\xf7?'
p1500
tp1501
Rp1502
ssS'MARTIN AMANDA K'
p1503
(dp1504
g3
I1522
sg4
I85430
sg6
I8211
sg7
I00
sg8
g5
sg9
S'a..martin@enron.com'
p1505
sg11
I5145434
sg12
g13
(g17
S'\xce|5\xa9\x91\x87u?'
p1506
tp1507
Rp1508
sg23
g5
sg24
I477
sg25
g5
sg26
I230
sg27
I2818454
sg28
g13
(g17
S'\x00\x00\x00\x00\x00\x00\x00\x00'
p1509
tp1510
Rp1511
sg32
g5
sg33
g5
sg34
I2070306
sg35
I8
sg36
I0
sg37
g5
sg38
I349487
sg39
I8407016
sg40
I2070306
sg41
g13
(g17
S'E\xc8\xc8\xdbl\x85\xcf?'
p1512
tp1513
Rp1514
ssS'BUY RICHARD B'
p1515
(dp1516
g3
I3523
sg4
I649584
sg6
g5
sg7
I00
sg8
I-694862
sg9
S'rick.buy@enron.com'
p1517
sg11
I769862
sg12
g13
(g17
S'\xd6\x13e\x1b\xed\xab\xa6?'
p1518
tp1519
Rp1520
sg23
g5
sg24
I2333
sg25
g5
sg26
I1053
sg27
I400572
sg28
g13
(g17
S'\x83i&J\xdbB\xb1?'
p1521
tp1522
Rp1523
sg32
g5
sg33
I900000
sg34
I3444470
sg35
I156
sg36
I71
sg37
I901657
sg38
I330546
sg39
I2355702
sg40
I2542813
sg41
g13
(g17
S'~\xca\xa9QWE\xf1?'
p1524
tp1525
Rp1526
ssS'GRAMM WENDY L'
p1527
(dp1528
g3
g5
sg4
g5
sg6
g5
sg7
I00
sg8
g5
sg9
g5
sg11
g5
sg12
g13
(g17
S'\x00\x00\x00\x00\x00\x00\x00\x00'
p1529
tp1530
Rp1531
sg23
g5
sg24
g5
sg25
g5
sg26
g5
sg27
g5
sg28
g13
(g17
S'\x00\x00\x00\x00\x00\x00\x00\x00'
p1532
tp1533
Rp1534
sg32
I119292
sg33
g5
sg34
g5
sg35
g5
sg36
g5
sg37
g5
sg38
g5
sg39
I119292
sg40
g5
sg41
g13
(g17
S'\x00\x00\x00\x00\x00\x00\x00\x00'
p1535
tp1536
Rp1537
ssS'CAUSEY RICHARD A'
p1538
(dp1539
g3
I1892
sg4
g5
sg6
I30674
sg7
I01
sg8
I-235000
sg9
S'richard.causey@enron.com'
p1540
sg11
I350000
sg12
g13
(g17
S'|\x13<y d\x9f?'
p1541
tp1542
Rp1543
sg23
g5
sg24
I1585
sg25
g5
sg26
I49
sg27
I307895
sg28
g13
(g17
S'\xd6\x87\xc6\xfa\xd0X\xcf?'
p1544
tp1545
Rp1546
sg32
g5
sg33
I1000000
sg34
I2502063
sg35
I58
sg36
I12
sg37
I2502063
sg38
I415189
sg39
I1868758
sg40
g5
sg41
g13
(g17
S'\x00\x00\x00\x00\x00\x00\x00\x00'
p1547
tp1548
Rp1549
ssS'TAYLOR MITCHELL S'
p1550
(dp1551
g3
I533
sg4
I227449
sg6
g5
sg7
I00
sg8
g5
sg9
S'mitchell.taylor@enron.com'
p1552
sg11
g5
sg12
g13
(g17
S'\x00\x00\x00\x00\x00\x00\x00\x00'
p1553
tp1554
Rp1555
sg23
g5
sg24
I300
sg25
g5
sg26
I29
sg27
g5
sg28
g13
(g17
S'\x00\x00\x00\x00\x00\x00\x00\x00'
p1556
tp1557
Rp1558
sg32
g5
sg33
I600000
sg34
I3745048
sg35
I0
sg36
I0
sg37
I563798
sg38
I265214
sg39
I1092663
sg40
I3181250
sg41
g13
(g17
S'x2w\x1f\xaeJ\x07@'
p1559
tp1560
Rp1561
ssS'GLISAN JR BEN F'
p1562
(dp1563
g3
I873
sg4
g5
sg6
I125978
sg7
I01
sg8
g5
sg9
S'ben.glisan@enron.com'
p1564
sg11
I71023
sg12
g13
(g17
S'\x1e\xd8GSD\x7f\xae?'
p1565
tp1566
Rp1567
sg23
g5
sg24
I874
sg25
g5
sg26
I16
sg27
I200308
sg28
g13
(g17
S'\x00\x00\x00\x00\x00\x00\xd8?'
p1568
tp1569
Rp1570
sg32
g5
sg33
I600000
sg34
I778546
sg35
I52
sg36
I6
sg37
I393818
sg38
I274975
sg39
I1272284
sg40
I384728
sg41
g13
(g17
S'g8\xdcPbZ\xd3?'
p1571
tp1572
Rp1573
ss.