(lp0
S'poi'
p1
aS'salary'
p2
aS'bonus'
p3
aS'restricted_stock'
p4
aS'deferred_income'
p5
aS'total_stock_value'
p6
aS'exercised_stock_options'
p7
aS'long_term_incentive'
p8
ag4
aS'perc_email_to_poi'
p9
aS'perc_totalinc_from_exercstock'
p10
a.